

Microchip MPLAB XC8 Assembler V2.45 build 20230818022343 
                                                                                               Thu Mar 28 09:03:06 2024

Microchip MPLAB XC8 C Compiler v2.45 (Free license) build 20230818022343 Og1 
     1                           	processor	18F4550
     2                           	fnconf	rparam,??,?,0
     3                           	pagewidth 120
     4                           	opt	flic
     5                           	psect	smallconst,global,reloc=2,class=SMALLCONST,delta=1,noexec
     6                           	psect	cinit,global,reloc=2,class=CODE,delta=1
     7                           	psect	bssCOMRAM,global,class=COMRAM,space=1,delta=1,lowdata,noexec
     8                           	psect	bssBANK0,global,class=BANK0,space=1,delta=1,lowdata,noexec
     9                           	psect	bssBANK1,global,class=BANK1,space=1,delta=1,lowdata,noexec
    10                           	psect	cstackBANK1,global,class=BANK1,space=1,delta=1,lowdata,noexec
    11                           	psect	cstackBANK0,global,class=BANK0,space=1,delta=1,lowdata,noexec
    12                           	psect	cstackCOMRAM,global,class=COMRAM,space=1,delta=1,lowdata,noexec
    13                           	psect	text0,global,reloc=2,class=CODE,delta=1
    14                           	psect	text1,global,reloc=2,class=CODE,delta=1,group=3
    15                           	psect	text2,global,reloc=2,class=CODE,delta=1,group=1
    16                           	psect	text3,global,reloc=2,class=CODE,delta=1,group=1
    17                           	psect	text4,global,reloc=2,class=CODE,delta=1,group=1
    18                           	psect	text5,global,reloc=2,class=CODE,delta=1,group=3
    19                           	psect	text6,global,reloc=2,class=CODE,delta=1,group=1
    20                           	psect	text7,global,reloc=2,class=CODE,delta=1,group=3
    21                           	psect	text8,global,reloc=2,class=CODE,delta=1,group=3
    22                           	psect	text9,global,reloc=2,class=CODE,delta=1,group=3
    23                           	psect	text10,global,reloc=2,class=CODE,delta=1,group=3
    24                           	psect	text11,global,reloc=2,class=CODE,delta=1,group=3
    25                           	psect	text12,global,reloc=2,class=CODE,delta=1,group=3
    26                           	psect	text13,global,reloc=2,class=CODE,delta=1,group=3
    27                           	psect	text14,global,reloc=2,class=CODE,delta=1,group=2
    28                           	psect	text15,global,reloc=2,class=CODE,delta=1,group=2
    29                           	psect	text16,global,reloc=2,class=CODE,delta=1,group=2
    30                           	psect	text17,global,reloc=2,class=CODE,delta=1,group=2
    31                           	psect	text18,global,reloc=2,class=CODE,delta=1,group=2
    32                           	psect	text19,global,reloc=2,class=CODE,delta=1,group=2
    33                           	psect	text20,global,reloc=2,class=CODE,delta=1,group=2
    34                           	psect	text21,global,reloc=2,class=CODE,delta=1,group=2
    35                           	psect	text22,global,reloc=2,class=CODE,delta=1,group=2
    36                           	psect	text23,global,reloc=2,class=CODE,delta=1,group=2
    37                           	psect	text24,global,reloc=2,class=CODE,delta=1
    38                           	psect	text25,global,reloc=2,class=CODE,delta=1
    39                           	psect	text26,global,reloc=2,class=CODE,delta=1
    40                           	psect	text27,global,reloc=2,class=CODE,delta=1
    41                           	psect	text28,global,reloc=2,class=CODE,delta=1
    42                           	psect	text29,global,reloc=2,class=CODE,delta=1
    43                           	psect	text30,global,reloc=2,class=CODE,delta=1
    44                           	psect	intcode,global,reloc=2,class=CODE,delta=1
    45                           	psect	intcode_body,global,reloc=2,class=CODE,delta=1
    46                           	psect	text32,global,reloc=2,class=CODE,delta=1
    47                           	psect	text33,global,reloc=2,class=CODE,delta=1
    48                           	psect	text34,global,reloc=2,class=CODE,delta=1
    49                           	psect	text35,global,reloc=2,class=CODE,delta=1,group=2
    50                           	psect	intsave_regs,global,class=BIGRAM,space=1,delta=1,noexec
    51                           	psect	rparam,global,class=COMRAM,space=1,delta=1,noexec
    52                           	psect	temp,global,ovrld,common,class=COMRAM,space=1,delta=1
    53                           	psect	config,global,abs,ovrld,class=CONFIG,space=4,delta=1,noexec
    54   000000                     
    55                           ; Generated 23/03/2023 GMT
    56                           ; 
    57                           ; Copyright © 2023, Microchip Technology Inc. and its subsidiaries ("Microchip")
    58                           ; All rights reserved.
    59                           ; 
    60                           ; This software is developed by Microchip Technology Inc. and its subsidiaries ("Microch
      +                          ip").
    61                           ; 
    62                           ; Redistribution and use in source and binary forms, with or without modification, are
    63                           ; permitted provided that the following conditions are met:
    64                           ; 
    65                           ;     1. Redistributions of source code must retain the above copyright notice, this lis
      +                          t of
    66                           ;        conditions and the following disclaimer.
    67                           ; 
    68                           ;     2. Redistributions in binary form must reproduce the above copyright notice, this 
      +                          list
    69                           ;        of conditions and the following disclaimer in the documentation and/or other
    70                           ;        materials provided with the distribution. Publication is not required when
    71                           ;        this file is used in an embedded application.
    72                           ; 
    73                           ;     3. Microchip's name may not be used to endorse or promote products derived from th
      +                          is
    74                           ;        software without specific prior written permission.
    75                           ; 
    76                           ; THIS SOFTWARE IS PROVIDED BY MICROCHIP "AS IS" AND ANY EXPRESS OR IMPLIED WARRANTIES,
    77                           ; INCLUDING, BUT NOT LIMITED TO, THE IMPLIED WARRANTIES OF MERCHANTABILITY AND FITNESS F
      +                          OR
    78                           ; PURPOSE ARE DISCLAIMED.  IN NO EVENT SHALL MICROCHIP BE LIABLE FOR ANY DIRECT, INDIREC
      +                          T,
    79                           ; INCIDENTAL, SPECIAL, EXEMPLARY, OR CONSEQUENTIAL DAMAGES (INCLUDING BUT NOT LIMITED TO
    80                           ; PROCUREMENT OF SUBSTITUTE GOODS OR SERVICES; LOSS OF USE, DATA OR PROFITS; OR BUSINESS
    81                           ; INTERRUPTION) HOWSOEVER CAUSED AND ON ANY THEORY OF LIABILITY, WHETHER IN CONTRACT, ST
      +                          RICT
    82                           ; LIABILITY, OR TORT (INCLUDING NEGLIGENCE OR OTHERWISE) ARISING IN ANY WAY OUT OF THE U
      +                          SE OF
    83                           ; THIS SOFTWARE, EVEN IF ADVISED OF THE POSSIBILITY OF SUCH DAMAGE.
    84                           ; 
    85                           ; 
    86                           ; Code-generator required, PIC18F4550 Definitions
    87                           ; 
    88                           ; SFR Addresses
    89   000000                     _CCPR1L	set	4030
    90   000000                     _CCPR1H	set	4031
    91   000000                     _T1CONbits	set	4045
    92   000000                     _LATDbits	set	3980
    93   000000                     _PIE1bits	set	3997
    94   000000                     _ADCON1bits	set	4033
    95   000000                     _T1CON	set	4045
    96   000000                     _INTCONbits	set	4082
    97   000000                     _CCP1CON	set	4029
    98   000000                     _PIR1bits	set	3998
    99   000000                     _TMR1H	set	4047
   100   000000                     _TMR1L	set	4046
   101   000000                     _TRISDbits	set	3989
   102                           
   103                           	psect	smallconst
   104   000800                     __psmallconst:
   105                           	callstack 0
   106   000800  00                 	db	0
   107   000801                     STR_1:
   108   000801  54                 	db	84	;'T'
   109   000802  3A                 	db	58	;':'
   110   000803  20                 	db	32
   111   000804  25                 	db	37
   112   000805  66                 	db	102	;'f'
   113   000806  00                 	db	0
   114   000807                     STR_2:
   115   000807  46                 	db	70	;'F'
   116   000808  3A                 	db	58	;':'
   117   000809  20                 	db	32
   118   00080A  25                 	db	37
   119   00080B  75                 	db	117	;'u'
   120   00080C  00                 	db	0
   121   00080D                     STR_3:
   122   00080D  69                 	db	105	;'i'
   123   00080E  6E                 	db	110	;'n'
   124   00080F  66                 	db	102	;'f'
   125   000810  00                 	db	0
   126   000811                     STR_6:
   127   000811  6E                 	db	110	;'n'
   128   000812  61                 	db	97	;'a'
   129   000813  6E                 	db	110	;'n'
   130   000814  00                 	db	0
   131   000815  00                 	db	0	; dummy byte at the end
   132   000000                     
   133                           ; #config settings
   134                           
   135                           	psect	cinit
   136   0039DA                     __pcinit:
   137                           	callstack 0
   138   0039DA                     start_initialization:
   139                           	callstack 0
   140   0039DA                     __initialization:
   141                           	callstack 0
   142                           
   143                           ; Clear objects allocated to BANK1 (80 bytes)
   144   0039DA  EE01  F000         	lfsr	0,__pbssBANK1
   145   0039DE  0E50               	movlw	80
   146   0039E0                     clear_0:
   147   0039E0  6AEE               	clrf	postinc0,c
   148   0039E2  06E8               	decf	wreg,f,c
   149   0039E4  E1FD               	bnz	clear_0
   150                           
   151                           ; Clear objects allocated to BANK0 (35 bytes)
   152   0039E6  EE00  F0DD         	lfsr	0,__pbssBANK0
   153   0039EA  0E23               	movlw	35
   154   0039EC                     clear_1:
   155   0039EC  6AEE               	clrf	postinc0,c
   156   0039EE  06E8               	decf	wreg,f,c
   157   0039F0  E1FD               	bnz	clear_1
   158                           
   159                           ; Clear objects allocated to COMRAM (6 bytes)
   160   0039F2  6A33               	clrf	(__pbssCOMRAM+5)& (0+255),c
   161   0039F4  6A32               	clrf	(__pbssCOMRAM+4)& (0+255),c
   162   0039F6  6A31               	clrf	(__pbssCOMRAM+3)& (0+255),c
   163   0039F8  6A30               	clrf	(__pbssCOMRAM+2)& (0+255),c
   164   0039FA  6A2F               	clrf	(__pbssCOMRAM+1)& (0+255),c
   165   0039FC  6A2E               	clrf	__pbssCOMRAM& (0+255),c
   166   0039FE                     end_of_initialization:
   167                           	callstack 0
   168   0039FE                     __end_of__initialization:
   169                           	callstack 0
   170   0039FE  9034               	bcf	int$flags,0,c	;clear compiler interrupt flag (level 1)
   171   003A00  9234               	bcf	int$flags,1,c	;clear compiler interrupt flag (level 2)
   172   003A02  0E00               	movlw	low (__Lmediumconst shr (0+16))
   173   003A04  6EF8               	movwf	tblptru,c
   174   003A06  0100               	movlb	0
   175   003A08  EF25  F01A         	goto	_main	;jump to C main() function
   176                           
   177                           	psect	bssCOMRAM
   178   00002E                     __pbssCOMRAM:
   179                           	callstack 0
   180   00002E                     ___fpclassifyf@F465:
   181                           	callstack 0
   182   00002E                     	ds	4
   183   000032                     _valor_pasos:
   184                           	callstack 0
   185   000032                     	ds	2
   186                           
   187                           	psect	bssBANK0
   188   0000DD                     __pbssBANK0:
   189                           	callstack 0
   190   0000DD                     floorf@F521:
   191                           	callstack 0
   192   0000DD                     	ds	4
   193   0000E1                     _width:
   194                           	callstack 0
   195   0000E1                     	ds	2
   196   0000E3                     _prec:
   197                           	callstack 0
   198   0000E3                     	ds	2
   199   0000E5                     _frecuencia:
   200                           	callstack 0
   201   0000E5                     	ds	2
   202   0000E7                     _flags:
   203                           	callstack 0
   204   0000E7                     	ds	1
   205   0000E8                     _buffer:
   206                           	callstack 0
   207   0000E8                     	ds	20
   208   0000FC                     _periodo:
   209                           	callstack 0
   210   0000FC                     	ds	4
   211                           
   212                           	psect	bssBANK1
   213   000100                     __pbssBANK1:
   214                           	callstack 0
   215   000100                     _dbuf:
   216                           	callstack 0
   217   000100                     	ds	80
   218                           
   219                           	psect	cstackBANK1
   220   000150                     __pcstackBANK1:
   221                           	callstack 0
   222   000150                     sprintf@ap:
   223                           	callstack 0
   224                           
   225                           ; 1 bytes @ 0x0
   226   000150                     	ds	1
   227   000151                     sprintf@f:
   228                           	callstack 0
   229                           
   230                           ; 12 bytes @ 0x1
   231   000151                     	ds	12
   232                           
   233                           	psect	cstackBANK0
   234   000060                     __pcstackBANK0:
   235                           	callstack 0
   236   000060                     ?___fpclassifyf:
   237                           	callstack 0
   238   000060                     ?___lwdiv:
   239                           	callstack 0
   240   000060                     ?___lwmod:
   241                           	callstack 0
   242   000060                     ?___fladd:
   243                           	callstack 0
   244   000060                     ?___fldiv:
   245                           	callstack 0
   246   000060                     ?___flmul:
   247                           	callstack 0
   248   000060                     ?_labs:
   249                           	callstack 0
   250   000060                     ?___flneg:
   251                           	callstack 0
   252   000060                     ?___fltol:
   253                           	callstack 0
   254   000060                     Lcd_Cmd@a:
   255                           	callstack 0
   256   000060                     Lcd_Write_Char@temp:
   257                           	callstack 0
   258   000060                     ___lwdiv@dividend:
   259                           	callstack 0
   260   000060                     ___lwmod@dividend:
   261                           	callstack 0
   262   000060                     memcpy@d1:
   263                           	callstack 0
   264   000060                     fputc@c:
   265                           	callstack 0
   266   000060                     strcpy@dest:
   267                           	callstack 0
   268   000060                     ___fleq@ff1:
   269                           	callstack 0
   270   000060                     ___flneg@f1:
   271                           	callstack 0
   272   000060                     ___fltol@f1:
   273                           	callstack 0
   274   000060                     ___fladd@b:
   275                           	callstack 0
   276   000060                     ___fldiv@b:
   277                           	callstack 0
   278   000060                     ___flmul@b:
   279                           	callstack 0
   280   000060                     ___fpclassifyf@x:
   281                           	callstack 0
   282   000060                     labs@a:
   283                           	callstack 0
   284                           
   285                           ; 4 bytes @ 0x0
   286   000060                     	ds	1
   287   000061                     ??_Lcd_Init:
   288   000061                     Lcd_Set_Cursor@b:
   289                           	callstack 0
   290   000061                     Lcd_Write_Char@y:
   291                           	callstack 0
   292                           
   293                           ; 1 bytes @ 0x1
   294   000061                     	ds	1
   295   000062                     Lcd_Set_Cursor@a:
   296                           	callstack 0
   297   000062                     Lcd_Write_Char@a:
   298                           	callstack 0
   299   000062                     strcpy@src:
   300                           	callstack 0
   301   000062                     ___lwdiv@divisor:
   302                           	callstack 0
   303   000062                     ___lwmod@divisor:
   304                           	callstack 0
   305   000062                     memcpy@s1:
   306                           	callstack 0
   307   000062                     fputc@fp:
   308                           	callstack 0
   309                           
   310                           ; 2 bytes @ 0x2
   311   000062                     	ds	1
   312   000063                     Lcd_Set_Cursor@z:
   313                           	callstack 0
   314   000063                     Lcd_Write_String@i:
   315                           	callstack 0
   316   000063                     strcpy@d:
   317                           	callstack 0
   318                           
   319                           ; 2 bytes @ 0x3
   320   000063                     	ds	1
   321   000064                     ??_fputc:
   322   000064                     ??___fpclassifyf:
   323   000064                     ??_labs:
   324   000064                     ??___fltol:
   325   000064                     Lcd_Set_Cursor@y:
   326                           	callstack 0
   327   000064                     ___lwdiv@counter:
   328                           	callstack 0
   329   000064                     memcpy@n:
   330                           	callstack 0
   331   000064                     ___fleq@ff2:
   332                           	callstack 0
   333   000064                     ___fladd@a:
   334                           	callstack 0
   335   000064                     ___fldiv@a:
   336                           	callstack 0
   337   000064                     ___flmul@a:
   338                           	callstack 0
   339                           
   340                           ; 4 bytes @ 0x4
   341   000064                     	ds	1
   342   000065                     Lcd_Set_Cursor@temp:
   343                           	callstack 0
   344   000065                     ___lwdiv@quotient:
   345                           	callstack 0
   346                           
   347                           ; 2 bytes @ 0x5
   348   000065                     	ds	1
   349   000066                     memcpy@tmp:
   350                           	callstack 0
   351                           
   352                           ; 1 bytes @ 0x6
   353   000066                     	ds	1
   354   000067                     memcpy@d:
   355                           	callstack 0
   356                           
   357                           ; 2 bytes @ 0x7
   358   000067                     	ds	1
   359   000068                     ??___fladd:
   360   000068                     ??___fldiv:
   361   000068                     ??___flmul:
   362   000068                     ??___fleq:
   363   000068                     ___fpclassifyf@e:
   364                           	callstack 0
   365                           
   366                           ; 2 bytes @ 0x8
   367   000068                     	ds	1
   368   000069                     memcpy@s:
   369                           	callstack 0
   370   000069                     fputs@s:
   371                           	callstack 0
   372                           
   373                           ; 2 bytes @ 0x9
   374   000069                     	ds	1
   375   00006A                     ___fpclassifyf@u:
   376                           	callstack 0
   377                           
   378                           ; 4 bytes @ 0xA
   379   00006A                     	ds	1
   380   00006B                     fputs@fp:
   381                           	callstack 0
   382                           
   383                           ; 2 bytes @ 0xB
   384   00006B                     	ds	1
   385   00006C                     ___fladd@signs:
   386                           	callstack 0
   387   00006C                     ___flmul@sign:
   388                           	callstack 0
   389   00006C                     ___fldiv@rem:
   390                           	callstack 0
   391                           
   392                           ; 4 bytes @ 0xC
   393   00006C                     	ds	1
   394   00006D                     ___fladd@aexp:
   395                           	callstack 0
   396   00006D                     ___flmul@aexp:
   397                           	callstack 0
   398   00006D                     fputs@c:
   399                           	callstack 0
   400                           
   401                           ; 1 bytes @ 0xD
   402   00006D                     	ds	1
   403   00006E                     ___fladd@bexp:
   404                           	callstack 0
   405   00006E                     fputs@i:
   406                           	callstack 0
   407   00006E                     ___flmul@grs:
   408                           	callstack 0
   409                           
   410                           ; 4 bytes @ 0xE
   411   00006E                     	ds	1
   412   00006F                     ___fladd@grs:
   413                           	callstack 0
   414                           
   415                           ; 1 bytes @ 0xF
   416   00006F                     	ds	1
   417   000070                     ___fldiv@sign:
   418                           	callstack 0
   419   000070                     pad@fp:
   420                           	callstack 0
   421                           
   422                           ; 2 bytes @ 0x10
   423   000070                     	ds	1
   424   000071                     ___fldiv@new_exp:
   425                           	callstack 0
   426                           
   427                           ; 2 bytes @ 0x11
   428   000071                     	ds	1
   429   000072                     ___flmul@bexp:
   430                           	callstack 0
   431   000072                     pad@buf:
   432                           	callstack 0
   433                           
   434                           ; 2 bytes @ 0x12
   435   000072                     	ds	1
   436   000073                     ___fldiv@grs:
   437                           	callstack 0
   438   000073                     ___flmul@prod:
   439                           	callstack 0
   440                           
   441                           ; 4 bytes @ 0x13
   442   000073                     	ds	1
   443   000074                     pad@p:
   444                           	callstack 0
   445                           
   446                           ; 2 bytes @ 0x14
   447   000074                     	ds	2
   448   000076                     pad@i:
   449                           	callstack 0
   450                           
   451                           ; 2 bytes @ 0x16
   452   000076                     	ds	1
   453   000077                     ___fldiv@bexp:
   454                           	callstack 0
   455   000077                     ___flmul@temp:
   456                           	callstack 0
   457                           
   458                           ; 2 bytes @ 0x17
   459   000077                     	ds	1
   460   000078                     ___fldiv@aexp:
   461                           	callstack 0
   462                           
   463                           ; 1 bytes @ 0x18
   464   000078                     	ds	1
   465   000079                     ?___flsub:
   466                           	callstack 0
   467   000079                     ?_floorf:
   468                           	callstack 0
   469   000079                     ___flge@ff1:
   470                           	callstack 0
   471   000079                     ___flsub@b:
   472                           	callstack 0
   473   000079                     floorf@x:
   474                           	callstack 0
   475                           
   476                           ; 4 bytes @ 0x19
   477   000079                     	ds	4
   478   00007D                     ??_floorf:
   479   00007D                     ___flge@ff2:
   480                           	callstack 0
   481   00007D                     ___flsub@a:
   482                           	callstack 0
   483                           
   484                           ; 4 bytes @ 0x1D
   485   00007D                     	ds	4
   486   000081                     ??___flge:
   487                           
   488                           ; 1 bytes @ 0x21
   489   000081                     	ds	2
   490   000083                     floorf@m:
   491                           	callstack 0
   492                           
   493                           ; 4 bytes @ 0x23
   494   000083                     	ds	4
   495   000087                     floorf@e:
   496                           	callstack 0
   497                           
   498                           ; 2 bytes @ 0x27
   499   000087                     	ds	2
   500   000089                     floorf@u:
   501                           	callstack 0
   502                           
   503                           ; 4 bytes @ 0x29
   504   000089                     	ds	4
   505   00008D                     efgtoa@fp:
   506                           	callstack 0
   507                           
   508                           ; 2 bytes @ 0x2D
   509   00008D                     	ds	2
   510   00008F                     efgtoa@f:
   511                           	callstack 0
   512                           
   513                           ; 4 bytes @ 0x2F
   514   00008F                     	ds	4
   515   000093                     efgtoa@c:
   516                           	callstack 0
   517                           
   518                           ; 1 bytes @ 0x33
   519   000093                     	ds	1
   520   000094                     ??_efgtoa:
   521                           
   522                           ; 1 bytes @ 0x34
   523   000094                     	ds	2
   524   000096                     efgtoa@ne:
   525                           	callstack 0
   526                           
   527                           ; 2 bytes @ 0x36
   528   000096                     	ds	2
   529   000098                     efgtoa@p:
   530                           	callstack 0
   531                           
   532                           ; 2 bytes @ 0x38
   533   000098                     	ds	2
   534   00009A                     efgtoa@t:
   535                           	callstack 0
   536                           
   537                           ; 2 bytes @ 0x3A
   538   00009A                     	ds	2
   539   00009C                     _efgtoa$1012:
   540                           	callstack 0
   541                           
   542                           ; 2 bytes @ 0x3C
   543   00009C                     	ds	2
   544   00009E                     efgtoa@pp:
   545                           	callstack 0
   546                           
   547                           ; 1 bytes @ 0x3E
   548   00009E                     	ds	1
   549   00009F                     efgtoa@mode:
   550                           	callstack 0
   551                           
   552                           ; 1 bytes @ 0x3F
   553   00009F                     	ds	1
   554   0000A0                     efgtoa@nmode:
   555                           	callstack 0
   556                           
   557                           ; 1 bytes @ 0x40
   558   0000A0                     	ds	1
   559   0000A1                     efgtoa@d:
   560                           	callstack 0
   561                           
   562                           ; 2 bytes @ 0x41
   563   0000A1                     	ds	2
   564   0000A3                     efgtoa@m:
   565                           	callstack 0
   566                           
   567                           ; 2 bytes @ 0x43
   568   0000A3                     	ds	2
   569   0000A5                     efgtoa@e:
   570                           	callstack 0
   571                           
   572                           ; 2 bytes @ 0x45
   573   0000A5                     	ds	2
   574   0000A7                     efgtoa@w:
   575                           	callstack 0
   576                           
   577                           ; 2 bytes @ 0x47
   578   0000A7                     	ds	2
   579   0000A9                     efgtoa@ou:
   580                           	callstack 0
   581                           
   582                           ; 4 bytes @ 0x49
   583   0000A9                     	ds	4
   584   0000AD                     efgtoa@i:
   585                           	callstack 0
   586                           
   587                           ; 2 bytes @ 0x4D
   588   0000AD                     	ds	2
   589   0000AF                     efgtoa@h:
   590                           	callstack 0
   591                           
   592                           ; 4 bytes @ 0x4F
   593   0000AF                     	ds	4
   594   0000B3                     efgtoa@l:
   595                           	callstack 0
   596                           
   597                           ; 4 bytes @ 0x53
   598   0000B3                     	ds	4
   599   0000B7                     efgtoa@sign:
   600                           	callstack 0
   601                           
   602                           ; 1 bytes @ 0x57
   603   0000B7                     	ds	1
   604   0000B8                     efgtoa@g:
   605                           	callstack 0
   606                           
   607                           ; 4 bytes @ 0x58
   608   0000B8                     	ds	4
   609   0000BC                     efgtoa@n:
   610                           	callstack 0
   611                           
   612                           ; 2 bytes @ 0x5C
   613   0000BC                     	ds	2
   614   0000BE                     efgtoa@u:
   615                           	callstack 0
   616                           
   617                           ; 4 bytes @ 0x5E
   618   0000BE                     	ds	4
   619   0000C2                     vfpfcnvrt@fp:
   620                           	callstack 0
   621                           
   622                           ; 2 bytes @ 0x62
   623   0000C2                     	ds	2
   624   0000C4                     vfpfcnvrt@fmt:
   625                           	callstack 0
   626                           
   627                           ; 1 bytes @ 0x64
   628   0000C4                     	ds	1
   629   0000C5                     vfpfcnvrt@ap:
   630                           	callstack 0
   631                           
   632                           ; 2 bytes @ 0x65
   633   0000C5                     	ds	2
   634   0000C7                     ??_vfpfcnvrt:
   635                           
   636                           ; 1 bytes @ 0x67
   637   0000C7                     	ds	2
   638   0000C9                     vfpfcnvrt@convarg:
   639                           	callstack 0
   640                           
   641                           ; 4 bytes @ 0x69
   642   0000C9                     	ds	4
   643   0000CD                     vfpfcnvrt@c:
   644                           	callstack 0
   645                           
   646                           ; 1 bytes @ 0x6D
   647   0000CD                     	ds	1
   648   0000CE                     vfpfcnvrt@cp:
   649                           	callstack 0
   650                           
   651                           ; 1 bytes @ 0x6E
   652   0000CE                     	ds	1
   653   0000CF                     ?_vfprintf:
   654                           	callstack 0
   655   0000CF                     vfprintf@fp:
   656                           	callstack 0
   657                           
   658                           ; 2 bytes @ 0x6F
   659   0000CF                     	ds	2
   660   0000D1                     vfprintf@fmt:
   661                           	callstack 0
   662                           
   663                           ; 1 bytes @ 0x71
   664   0000D1                     	ds	1
   665   0000D2                     vfprintf@ap:
   666                           	callstack 0
   667                           
   668                           ; 2 bytes @ 0x72
   669   0000D2                     	ds	2
   670   0000D4                     vfprintf@cfmt:
   671                           	callstack 0
   672                           
   673                           ; 1 bytes @ 0x74
   674   0000D4                     	ds	1
   675   0000D5                     ?_sprintf:
   676                           	callstack 0
   677   0000D5                     sprintf@s:
   678                           	callstack 0
   679                           
   680                           ; 1 bytes @ 0x75
   681   0000D5                     	ds	1
   682   0000D6                     sprintf@fmt:
   683                           	callstack 0
   684                           
   685                           ; 1 bytes @ 0x76
   686   0000D6                     	ds	5
   687   0000DB                     ??_main:
   688                           
   689                           ; 1 bytes @ 0x7B
   690   0000DB                     	ds	2
   691                           
   692                           	psect	cstackCOMRAM
   693   000001                     __pcstackCOMRAM:
   694                           	callstack 0
   695   000001                     ?___xxtofl:
   696                           	callstack 0
   697   000001                     ?i2___fldiv:
   698                           	callstack 0
   699   000001                     ___xxtofl@val:
   700                           	callstack 0
   701   000001                     i2___fldiv@b:
   702                           	callstack 0
   703                           
   704                           ; 4 bytes @ 0x0
   705   000001                     	ds	4
   706   000005                     ??___xxtofl:
   707   000005                     i2___fldiv@a:
   708                           	callstack 0
   709                           
   710                           ; 4 bytes @ 0x4
   711   000005                     	ds	4
   712   000009                     ??i2___fldiv:
   713   000009                     ___xxtofl@sign:
   714                           	callstack 0
   715                           
   716                           ; 1 bytes @ 0x8
   717   000009                     	ds	1
   718   00000A                     ___xxtofl@exp:
   719                           	callstack 0
   720                           
   721                           ; 1 bytes @ 0x9
   722   00000A                     	ds	1
   723   00000B                     ___xxtofl@arg:
   724                           	callstack 0
   725                           
   726                           ; 4 bytes @ 0xA
   727   00000B                     	ds	2
   728   00000D                     i2___fldiv@rem:
   729                           	callstack 0
   730                           
   731                           ; 4 bytes @ 0xC
   732   00000D                     	ds	2
   733   00000F                     ?i2___flmul:
   734                           	callstack 0
   735   00000F                     i2___flmul@b:
   736                           	callstack 0
   737                           
   738                           ; 4 bytes @ 0xE
   739   00000F                     	ds	2
   740   000011                     i2___fldiv@sign:
   741                           	callstack 0
   742                           
   743                           ; 1 bytes @ 0x10
   744   000011                     	ds	1
   745   000012                     i2___fldiv@new_exp:
   746                           	callstack 0
   747                           
   748                           ; 2 bytes @ 0x11
   749   000012                     	ds	1
   750   000013                     i2___flmul@a:
   751                           	callstack 0
   752                           
   753                           ; 4 bytes @ 0x12
   754   000013                     	ds	1
   755   000014                     i2___fldiv@grs:
   756                           	callstack 0
   757                           
   758                           ; 4 bytes @ 0x13
   759   000014                     	ds	3
   760   000017                     ??i2___flmul:
   761                           
   762                           ; 1 bytes @ 0x16
   763   000017                     	ds	1
   764   000018                     i2___fldiv@bexp:
   765                           	callstack 0
   766                           
   767                           ; 1 bytes @ 0x17
   768   000018                     	ds	1
   769   000019                     i2___fldiv@aexp:
   770                           	callstack 0
   771                           
   772                           ; 1 bytes @ 0x18
   773   000019                     	ds	1
   774   00001A                     ?i2___fltol:
   775                           	callstack 0
   776   00001A                     i2___fltol@f1:
   777                           	callstack 0
   778                           
   779                           ; 4 bytes @ 0x19
   780   00001A                     	ds	1
   781   00001B                     i2___flmul@sign:
   782                           	callstack 0
   783                           
   784                           ; 1 bytes @ 0x1A
   785   00001B                     	ds	1
   786   00001C                     i2___flmul@grs:
   787                           	callstack 0
   788                           
   789                           ; 4 bytes @ 0x1B
   790   00001C                     	ds	2
   791   00001E                     ??i2___fltol:
   792                           
   793                           ; 1 bytes @ 0x1D
   794   00001E                     	ds	2
   795   000020                     i2___flmul@aexp:
   796                           	callstack 0
   797                           
   798                           ; 1 bytes @ 0x1F
   799   000020                     	ds	1
   800   000021                     i2___flmul@bexp:
   801                           	callstack 0
   802                           
   803                           ; 1 bytes @ 0x20
   804   000021                     	ds	1
   805   000022                     i2___fltol@sign1:
   806                           	callstack 0
   807   000022                     i2___flmul@prod:
   808                           	callstack 0
   809                           
   810                           ; 4 bytes @ 0x21
   811   000022                     	ds	1
   812   000023                     i2___fltol@exp1:
   813                           	callstack 0
   814                           
   815                           ; 1 bytes @ 0x22
   816   000023                     	ds	3
   817   000026                     i2___flmul@temp:
   818                           	callstack 0
   819                           
   820                           ; 2 bytes @ 0x25
   821   000026                     	ds	2
   822   000028                     ??_INT_CCP1:
   823                           
   824                           ; 1 bytes @ 0x27
   825   000028                     	ds	4
   826   00002C                     ??_strcpy:
   827   00002C                     ??_pad:
   828   00002C                     Lcd_Port@a:
   829                           	callstack 0
   830   00002C                     ___fltol@sign1:
   831                           	callstack 0
   832   00002C                     ___lwmod@counter:
   833                           	callstack 0
   834                           
   835                           ; 1 bytes @ 0x2B
   836   00002C                     	ds	1
   837   00002D                     ??_Lcd_Cmd:
   838   00002D                     Lcd_Write_String@a:
   839                           	callstack 0
   840   00002D                     ___fltol@exp1:
   841                           	callstack 0
   842                           
   843                           ; 1 bytes @ 0x2C
   844   00002D                     	ds	1
   845   00002E                     
   846                           ; 1 bytes @ 0x2D
   847 ;;
   848 ;;Main: autosize = 0, tempsize = 2, incstack = 0, save=0
   849 ;;
   850 ;; *************** function _main *****************
   851 ;; Defined at:
   852 ;;		line 27 in file "ccp_captura.c"
   853 ;; Parameters:    Size  Location     Type
   854 ;;		None
   855 ;; Auto vars:     Size  Location     Type
   856 ;;		None
   857 ;; Return value:  Size  Location     Type
   858 ;;                  1    wreg      void 
   859 ;; Registers used:
   860 ;;		wreg, fsr1l, fsr1h, fsr2l, fsr2h, status,2, status,0, tblptrl, tblptrh, tblptru, prodl, prodh, cstack
   861 ;; Tracked objects:
   862 ;;		On entry : 0/0
   863 ;;		On exit  : 0/0
   864 ;;		Unchanged: 0/0
   865 ;; Data sizes:     COMRAM   BANK0   BANK1   BANK2   BANK3   BANK4   BANK5   BANK6   BANK7
   866 ;;      Params:         0       0       0       0       0       0       0       0       0
   867 ;;      Locals:         0       0       0       0       0       0       0       0       0
   868 ;;      Temps:          0       2       0       0       0       0       0       0       0
   869 ;;      Totals:         0       2       0       0       0       0       0       0       0
   870 ;;Total ram usage:        2 bytes
   871 ;; Hardware stack levels required when called: 10
   872 ;; This function calls:
   873 ;;		_Lcd_Clear
   874 ;;		_Lcd_Init
   875 ;;		_Lcd_Set_Cursor
   876 ;;		_Lcd_Write_String
   877 ;;		_sprintf
   878 ;; This function is called by:
   879 ;;		Startup code after reset
   880 ;; This function uses a non-reentrant model
   881 ;;
   882                           
   883                           	psect	text0
   884   00344A                     __ptext0:
   885                           	callstack 0
   886   00344A                     _main:
   887                           	callstack 21
   888   00344A                     
   889                           ;ccp_captura.c: 28:     ADCON1bits.PCFG = 0x0F;
   890   00344A  0E0F               	movlw	15
   891   00344C  12C1               	iorwf	193,f,c	;volatile
   892   00344E                     
   893                           ;ccp_captura.c: 29:     INTCONbits.GIE = 1;
   894   00344E  8EF2               	bsf	242,7,c	;volatile
   895   003450                     
   896                           ;ccp_captura.c: 30:     INTCONbits.PEIE = 1;
   897   003450  8CF2               	bsf	242,6,c	;volatile
   898   003452                     
   899                           ;ccp_captura.c: 31:     PIE1bits.CCP1IE = 1;
   900   003452  849D               	bsf	157,2,c	;volatile
   901   003454                     
   902                           ;ccp_captura.c: 32:     PIR1bits.CCP1IF = 0;
   903   003454  949E               	bcf	158,2,c	;volatile
   904                           
   905                           ;ccp_captura.c: 33:     T1CON = 0xF8;
   906   003456  0EF8               	movlw	248
   907   003458  6ECD               	movwf	205,c	;volatile
   908                           
   909                           ;ccp_captura.c: 34:     TMR1L = 0x00;
   910   00345A  0E00               	movlw	0
   911   00345C  6ECE               	movwf	206,c	;volatile
   912                           
   913                           ;ccp_captura.c: 35:     TMR1H = 0x00;
   914   00345E  0E00               	movlw	0
   915   003460  6ECF               	movwf	207,c	;volatile
   916                           
   917                           ;ccp_captura.c: 36:     CCP1CON = 0x05;
   918   003462  0E05               	movlw	5
   919   003464  6EBD               	movwf	189,c	;volatile
   920   003466                     
   921                           ;ccp_captura.c: 37:     T1CONbits.TMR1ON = 1;
   922   003466  80CD               	bsf	205,0,c	;volatile
   923   003468                     
   924                           ;ccp_captura.c: 38:     Lcd_Init();
   925   003468  EC77  F01A         	call	_Lcd_Init	;wreg free
   926   00346C                     l6405:
   927                           
   928                           ;ccp_captura.c: 41:         Lcd_Clear();
   929   00346C  EC18  F01D         	call	_Lcd_Clear	;wreg free
   930   003470                     
   931                           ;ccp_captura.c: 42:         Lcd_Set_Cursor(1,1);
   932   003470  0E01               	movlw	1
   933   003472  0100               	movlb	0	; () banked
   934   003474  6F61               	movwf	Lcd_Set_Cursor@b& (0+255),b
   935   003476  0E01               	movlw	1
   936   003478  EC9F  F018         	call	_Lcd_Set_Cursor
   937   00347C                     
   938                           ;ccp_captura.c: 43:         sprintf(buffer, "T: %f", periodo);
   939   00347C  0EE8               	movlw	low _buffer
   940   00347E  0100               	movlb	0	; () banked
   941   003480  6FD5               	movwf	sprintf@s& (0+255),b
   942   003482  0E01               	movlw	low STR_1
   943   003484  6FD6               	movwf	sprintf@fmt& (0+255),b
   944   003486  C0FC  F0D7         	movff	_periodo,?_sprintf+2
   945   00348A  C0FD  F0D8         	movff	_periodo+1,?_sprintf+3
   946   00348E  C0FE  F0D9         	movff	_periodo+2,?_sprintf+4
   947   003492  C0FF  F0DA         	movff	_periodo+3,?_sprintf+5
   948   003496  EC55  F01C         	call	_sprintf	;wreg free
   949   00349A                     
   950                           ;ccp_captura.c: 44:         Lcd_Write_String(buffer);
   951   00349A  0EE8               	movlw	low _buffer
   952   00349C  6E2D               	movwf	Lcd_Write_String@a^0,c
   953   00349E  EC95  F01C         	call	_Lcd_Write_String	;wreg free
   954   0034A2                     
   955                           ;ccp_captura.c: 45:         Lcd_Set_Cursor(2,1);
   956   0034A2  0E01               	movlw	1
   957   0034A4  0100               	movlb	0	; () banked
   958   0034A6  6F61               	movwf	Lcd_Set_Cursor@b& (0+255),b
   959   0034A8  0E02               	movlw	2
   960   0034AA  EC9F  F018         	call	_Lcd_Set_Cursor
   961   0034AE                     
   962                           ;ccp_captura.c: 46:         sprintf(buffer, "F: %u", frecuencia);
   963   0034AE  0EE8               	movlw	low _buffer
   964   0034B0  0100               	movlb	0	; () banked
   965   0034B2  6FD5               	movwf	sprintf@s& (0+255),b
   966   0034B4  0E07               	movlw	low STR_2
   967   0034B6  6FD6               	movwf	sprintf@fmt& (0+255),b
   968   0034B8  C0E5  F0D7         	movff	_frecuencia,?_sprintf+2
   969   0034BC  C0E6  F0D8         	movff	_frecuencia+1,?_sprintf+3
   970   0034C0  EC55  F01C         	call	_sprintf	;wreg free
   971   0034C4                     
   972                           ;ccp_captura.c: 47:         Lcd_Write_String(buffer);
   973   0034C4  0EE8               	movlw	low _buffer
   974   0034C6  6E2D               	movwf	Lcd_Write_String@a^0,c
   975   0034C8  EC95  F01C         	call	_Lcd_Write_String	;wreg free
   976   0034CC                     
   977                           ;ccp_captura.c: 48:         _delay((unsigned long)((100)*(48000000/4000.0)));
   978   0034CC  0E07               	movlw	7
   979   0034CE  0100               	movlb	0	; () banked
   980   0034D0  6FDC               	movwf	(??_main+1)& (0+255),b
   981   0034D2  0E17               	movlw	23
   982   0034D4  6FDB               	movwf	??_main& (0+255),b
   983   0034D6  0E6A               	movlw	106
   984   0034D8                     u7257:
   985   0034D8  2EE8               	decfsz	wreg,f,c
   986   0034DA  D7FE               	bra	u7257
   987   0034DC  2FDB               	decfsz	??_main& (0+255),f,b
   988   0034DE  D7FC               	bra	u7257
   989   0034E0  2FDC               	decfsz	(??_main+1)& (0+255),f,b
   990   0034E2  D7FA               	bra	u7257
   991   0034E4  0000               	nop	
   992   0034E6  EF36  F01A         	goto	l6405
   993   0034EA  EF07  F000         	goto	start
   994   0034EE                     __end_of_main:
   995                           	callstack 0
   996                           
   997 ;; *************** function _sprintf *****************
   998 ;; Defined at:
   999 ;;		line 9 in file "C:\Program Files\Microchip\xc8\v2.45\pic\sources\c99\common\nf_sprintf.c"
  1000 ;; Parameters:    Size  Location     Type
  1001 ;;  s               1  117[BANK0 ] PTR unsigned char 
  1002 ;;		 -> buffer(20), 
  1003 ;;  fmt             1  118[BANK0 ] PTR const unsigned char 
  1004 ;;		 -> STR_2(6), STR_1(6), 
  1005 ;; Auto vars:     Size  Location     Type
  1006 ;;  f              12    1[BANK1 ] struct _IO_FILE
  1007 ;;  ret             2    0        int 
  1008 ;;  ap              1    0[BANK1 ] PTR void [1]
  1009 ;;		 -> ?_sprintf(2), 
  1010 ;; Return value:  Size  Location     Type
  1011 ;;                  2  117[BANK0 ] int 
  1012 ;; Registers used:
  1013 ;;		wreg, fsr1l, fsr1h, fsr2l, fsr2h, status,2, status,0, tblptrl, tblptrh, tblptru, prodl, prodh, cstack
  1014 ;; Tracked objects:
  1015 ;;		On entry : 0/0
  1016 ;;		On exit  : 0/0
  1017 ;;		Unchanged: 0/0
  1018 ;; Data sizes:     COMRAM   BANK0   BANK1   BANK2   BANK3   BANK4   BANK5   BANK6   BANK7
  1019 ;;      Params:         0       6       0       0       0       0       0       0       0
  1020 ;;      Locals:         0       0      13       0       0       0       0       0       0
  1021 ;;      Temps:          0       0       0       0       0       0       0       0       0
  1022 ;;      Totals:         0       6      13       0       0       0       0       0       0
  1023 ;;Total ram usage:       19 bytes
  1024 ;; Hardware stack levels used: 1
  1025 ;; Hardware stack levels required when called: 9
  1026 ;; This function calls:
  1027 ;;		_vfprintf
  1028 ;; This function is called by:
  1029 ;;		_main
  1030 ;; This function uses a non-reentrant model
  1031 ;;
  1032                           
  1033                           	psect	text1
  1034   0038AA                     __ptext1:
  1035                           	callstack 0
  1036   0038AA                     _sprintf:
  1037                           	callstack 21
  1038   0038AA  0ED7               	movlw	low (?_sprintf+2)
  1039   0038AC  0101               	movlb	1	; () banked
  1040   0038AE  6F50               	movwf	sprintf@ap& (0+255),b
  1041   0038B0  C0D5  F151         	movff	sprintf@s,sprintf@f
  1042   0038B4                     
  1043                           ; BSR set to: 1
  1044   0038B4  0E00               	movlw	0
  1045   0038B6  6F55               	movwf	(sprintf@f+4)& (0+255),b
  1046   0038B8  0E00               	movlw	0
  1047   0038BA  6F54               	movwf	(sprintf@f+3)& (0+255),b
  1048   0038BC                     
  1049                           ; BSR set to: 1
  1050   0038BC  0E00               	movlw	0
  1051   0038BE  6F5C               	movwf	(sprintf@f+11)& (0+255),b
  1052   0038C0  0E00               	movlw	0
  1053   0038C2  6F5B               	movwf	(sprintf@f+10)& (0+255),b
  1054   0038C4                     
  1055                           ; BSR set to: 1
  1056   0038C4  0E51               	movlw	low sprintf@f
  1057   0038C6  0100               	movlb	0	; () banked
  1058   0038C8  6FCF               	movwf	vfprintf@fp& (0+255),b
  1059   0038CA  0E01               	movlw	high sprintf@f
  1060   0038CC  6FD0               	movwf	(vfprintf@fp+1)& (0+255),b
  1061   0038CE  C0D6  F0D1         	movff	sprintf@fmt,vfprintf@fmt
  1062   0038D2  0E50               	movlw	low sprintf@ap
  1063   0038D4  6FD2               	movwf	vfprintf@ap& (0+255),b
  1064   0038D6  0E01               	movlw	high sprintf@ap
  1065   0038D8  6FD3               	movwf	(vfprintf@ap+1)& (0+255),b
  1066   0038DA  ECE8  F01B         	call	_vfprintf	;wreg free
  1067   0038DE  0100               	movlb	0	; () banked
  1068   0038E0  51D5               	movf	sprintf@s& (0+255),w,b
  1069   0038E2  0101               	movlb	1	; () banked
  1070   0038E4  2554               	addwf	(sprintf@f+3)& (0+255),w,b
  1071   0038E6  6ED9               	movwf	fsr2l,c
  1072   0038E8  6ADA               	clrf	fsr2h,c
  1073   0038EA  6ADF               	clrf	indf2,c
  1074   0038EC                     
  1075                           ; BSR set to: 1
  1076   0038EC  0012               	return		;funcret
  1077   0038EE                     __end_of_sprintf:
  1078                           	callstack 0
  1079                           
  1080 ;; *************** function _vfprintf *****************
  1081 ;; Defined at:
  1082 ;;		line 1817 in file "C:\Program Files\Microchip\xc8\v2.45\pic\sources\c99\common\doprnt.c"
  1083 ;; Parameters:    Size  Location     Type
  1084 ;;  fp              2  111[BANK0 ] PTR struct _IO_FILE
  1085 ;;		 -> sprintf@f(12), 
  1086 ;;  fmt             1  113[BANK0 ] PTR const unsigned char 
  1087 ;;		 -> STR_2(6), STR_1(6), 
  1088 ;;  ap              2  114[BANK0 ] PTR PTR void 
  1089 ;;		 -> sprintf@ap(1), 
  1090 ;; Auto vars:     Size  Location     Type
  1091 ;;  cfmt            1  116[BANK0 ] PTR unsigned char 
  1092 ;;		 -> STR_2(6), STR_1(6), 
  1093 ;; Return value:  Size  Location     Type
  1094 ;;                  2  111[BANK0 ] int 
  1095 ;; Registers used:
  1096 ;;		wreg, fsr1l, fsr1h, fsr2l, fsr2h, status,2, status,0, tblptrl, tblptrh, tblptru, prodl, prodh, cstack
  1097 ;; Tracked objects:
  1098 ;;		On entry : 0/0
  1099 ;;		On exit  : 0/0
  1100 ;;		Unchanged: 0/0
  1101 ;; Data sizes:     COMRAM   BANK0   BANK1   BANK2   BANK3   BANK4   BANK5   BANK6   BANK7
  1102 ;;      Params:         0       5       0       0       0       0       0       0       0
  1103 ;;      Locals:         0       1       0       0       0       0       0       0       0
  1104 ;;      Temps:          0       0       0       0       0       0       0       0       0
  1105 ;;      Totals:         0       6       0       0       0       0       0       0       0
  1106 ;;Total ram usage:        6 bytes
  1107 ;; Hardware stack levels used: 1
  1108 ;; Hardware stack levels required when called: 8
  1109 ;; This function calls:
  1110 ;;		_vfpfcnvrt
  1111 ;; This function is called by:
  1112 ;;		_sprintf
  1113 ;; This function uses a non-reentrant model
  1114 ;;
  1115                           
  1116                           	psect	text2
  1117   0037D0                     __ptext2:
  1118                           	callstack 0
  1119   0037D0                     _vfprintf:
  1120                           	callstack 21
  1121   0037D0                     
  1122                           ;C:\Program Files\Microchip\xc8\v2.45\pic\sources\c99\common\doprnt.c: 1817: int vfprint
      +                          f(FILE *fp, const char *fmt, va_list ap);C:\Program Files\Microchip\xc8\v2.45\pic\source
      +                          s\c99\common\doprnt.c: 1818: {;C:\Program Files\Microchip\xc8\v2.45\pic\sources\c99\comm
      +                          on\doprnt.c: 1820:     char *cfmt;;C:\Program Files\Microchip\xc8\v2.45\pic\sources\c99\
      +                          common\doprnt.c: 1822:     cfmt = (char *)fmt;
  1123   0037D0  C0D1  F0D4         	movff	vfprintf@fmt,vfprintf@cfmt
  1124                           
  1125                           ;C:\Program Files\Microchip\xc8\v2.45\pic\sources\c99\common\doprnt.c: 1826:     while (
      +                          *cfmt) {
  1126   0037D4  EFF9  F01B         	goto	l6373
  1127   0037D8                     l6371:
  1128                           
  1129                           ;C:\Program Files\Microchip\xc8\v2.45\pic\sources\c99\common\doprnt.c: 1830:    vfpfcnvr
      +                          t(fp, &cfmt, ap);
  1130   0037D8  C0CF  F0C2         	movff	vfprintf@fp,vfpfcnvrt@fp
  1131   0037DC  C0D0  F0C3         	movff	vfprintf@fp+1,vfpfcnvrt@fp+1
  1132   0037E0  0ED4               	movlw	low vfprintf@cfmt
  1133   0037E2  0100               	movlb	0	; () banked
  1134   0037E4  6FC4               	movwf	vfpfcnvrt@fmt& (0+255),b
  1135   0037E6  C0D2  F0C5         	movff	vfprintf@ap,vfpfcnvrt@ap
  1136   0037EA  C0D3  F0C6         	movff	vfprintf@ap+1,vfpfcnvrt@ap+1
  1137   0037EE  EC2E  F013         	call	_vfpfcnvrt	;wreg free
  1138   0037F2                     l6373:
  1139                           
  1140                           ;C:\Program Files\Microchip\xc8\v2.45\pic\sources\c99\common\doprnt.c: 1826:     while (
      +                          *cfmt) {
  1141   0037F2  C0D4  FFF6         	movff	vfprintf@cfmt,tblptrl
  1142   0037F6                     	if	1	;There is more than 1 active tblptr byte
  1143   0037F6  0E08               	movlw	high __smallconst
  1144   0037F8  6EF7               	movwf	tblptrh,c
  1145   0037FA                     	endif
  1146   0037FA                     	if	0	;tblptru may be non-zero
  1147   0037FA                     	endif
  1148   0037FA                     	if	0	;tblptru may be non-zero
  1149   0037FA                     	endif
  1150   0037FA  0008               	tblrd		*
  1151   0037FC  50F5               	movf	tablat,w,c
  1152   0037FE  0900               	iorlw	0
  1153   003800  A4D8               	btfss	status,2,c
  1154   003802  EF05  F01C         	goto	u7241
  1155   003806  EF07  F01C         	goto	u7240
  1156   00380A                     u7241:
  1157   00380A  EFEC  F01B         	goto	l6371
  1158   00380E                     u7240:
  1159   00380E                     
  1160                           ;C:\Program Files\Microchip\xc8\v2.45\pic\sources\c99\common\doprnt.c: 1835:  return 0;
  1161   00380E  0E00               	movlw	0
  1162   003810  0100               	movlb	0	; () banked
  1163   003812  6FD0               	movwf	(?_vfprintf+1)& (0+255),b
  1164   003814  0E00               	movlw	0
  1165   003816  6FCF               	movwf	?_vfprintf& (0+255),b
  1166   003818                     
  1167                           ; BSR set to: 0
  1168   003818  0012               	return		;funcret
  1169   00381A                     __end_of_vfprintf:
  1170                           	callstack 0
  1171                           
  1172 ;; *************** function _vfpfcnvrt *****************
  1173 ;; Defined at:
  1174 ;;		line 1177 in file "C:\Program Files\Microchip\xc8\v2.45\pic\sources\c99\common\doprnt.c"
  1175 ;; Parameters:    Size  Location     Type
  1176 ;;  fp              2   98[BANK0 ] PTR struct _IO_FILE
  1177 ;;		 -> sprintf@f(12), 
  1178 ;;  fmt             1  100[BANK0 ] PTR PTR unsigned char 
  1179 ;;		 -> vfprintf@cfmt(1), 
  1180 ;;  ap              2  101[BANK0 ] PTR PTR void 
  1181 ;;		 -> sprintf@ap(1), 
  1182 ;; Auto vars:     Size  Location     Type
  1183 ;;  convarg         4  105[BANK0 ] struct .
  1184 ;;  cp              1  110[BANK0 ] PTR unsigned char 
  1185 ;;		 -> STR_2(6), STR_1(6), 
  1186 ;;  c               1  109[BANK0 ] unsigned char 
  1187 ;;  done            1    0        _Bool 
  1188 ;; Return value:  Size  Location     Type
  1189 ;;                  1    wreg      void 
  1190 ;; Registers used:
  1191 ;;		wreg, fsr1l, fsr1h, fsr2l, fsr2h, status,2, status,0, tblptrl, tblptrh, tblptru, prodl, prodh, cstack
  1192 ;; Tracked objects:
  1193 ;;		On entry : 0/0
  1194 ;;		On exit  : 0/0
  1195 ;;		Unchanged: 0/0
  1196 ;; Data sizes:     COMRAM   BANK0   BANK1   BANK2   BANK3   BANK4   BANK5   BANK6   BANK7
  1197 ;;      Params:         0       5       0       0       0       0       0       0       0
  1198 ;;      Locals:         0       6       0       0       0       0       0       0       0
  1199 ;;      Temps:          0       2       0       0       0       0       0       0       0
  1200 ;;      Totals:         0      13       0       0       0       0       0       0       0
  1201 ;;Total ram usage:       13 bytes
  1202 ;; Hardware stack levels used: 1
  1203 ;; Hardware stack levels required when called: 7
  1204 ;; This function calls:
  1205 ;;		___lwdiv
  1206 ;;		___lwmod
  1207 ;;		_efgtoa
  1208 ;;		_fputc
  1209 ;; This function is called by:
  1210 ;;		_vfprintf
  1211 ;; This function uses a non-reentrant model
  1212 ;;
  1213                           
  1214                           	psect	text3
  1215   00265C                     __ptext3:
  1216                           	callstack 0
  1217   00265C                     _vfpfcnvrt:
  1218                           	callstack 21
  1219   00265C                     
  1220                           ;C:\Program Files\Microchip\xc8\v2.45\pic\sources\c99\common\doprnt.c: 1177: vfpfcnvrt(F
      +                          ILE *fp, char *fmt[], va_list ap);C:\Program Files\Microchip\xc8\v2.45\pic\sources\c99\c
      +                          ommon\doprnt.c: 1178: {;C:\Program Files\Microchip\xc8\v2.45\pic\sources\c99\common\dopr
      +                          nt.c: 1179:     char c, *cp;;C:\Program Files\Microchip\xc8\v2.45\pic\sources\c99\common
      +                          \doprnt.c: 1180:     _Bool done;;C:\Program Files\Microchip\xc8\v2.45\pic\sources\c99\co
      +                          mmon\doprnt.c: 1188:  } convarg;;C:\Program Files\Microchip\xc8\v2.45\pic\sources\c99\co
      +                          mmon\doprnt.c: 1201:     if ((*fmt)[0] == '%') {
  1221   00265C  0100               	movlb	0	; () banked
  1222   00265E  51C4               	movf	vfpfcnvrt@fmt& (0+255),w,b
  1223   002660  6ED9               	movwf	fsr2l,c
  1224   002662  6ADA               	clrf	fsr2h,c
  1225   002664  CFDF FFF6          	movff	indf2,tblptrl
  1226   002668                     	if	1	;There is more than 1 active tblptr byte
  1227   002668  0E08               	movlw	high __smallconst
  1228   00266A  6EF7               	movwf	tblptrh,c
  1229   00266C                     	endif
  1230   00266C                     	if	0	;tblptru may be non-zero
  1231   00266C                     	endif
  1232   00266C                     	if	0	;tblptru may be non-zero
  1233   00266C                     	endif
  1234   00266C  0008               	tblrd		*
  1235   00266E  50F5               	movf	tablat,w,c
  1236   002670  0A25               	xorlw	37
  1237   002672  A4D8               	btfss	status,2,c
  1238   002674  EF3E  F013         	goto	u7181
  1239   002678  EF40  F013         	goto	u7180
  1240   00267C                     u7181:
  1241   00267C  EF9C  F014         	goto	l6347
  1242   002680                     u7180:
  1243   002680                     
  1244                           ; BSR set to: 0
  1245                           ;C:\Program Files\Microchip\xc8\v2.45\pic\sources\c99\common\doprnt.c: 1202:         ++*
      +                          fmt;
  1246   002680  51C4               	movf	vfpfcnvrt@fmt& (0+255),w,b
  1247   002682  6ED9               	movwf	fsr2l,c
  1248   002684  6ADA               	clrf	fsr2h,c
  1249   002686  2ADF               	incf	indf2,f,c
  1250   002688                     
  1251                           ; BSR set to: 0
  1252                           ;C:\Program Files\Microchip\xc8\v2.45\pic\sources\c99\common\doprnt.c: 1204:         fla
      +                          gs = width = 0;
  1253   002688  0E00               	movlw	0
  1254   00268A  6FE2               	movwf	(_width+1)& (0+255),b
  1255   00268C  0E00               	movlw	0
  1256   00268E  6FE1               	movwf	_width& (0+255),b
  1257   002690  C0E1  F0E7         	movff	_width,_flags
  1258   002694                     
  1259                           ; BSR set to: 0
  1260                           ;C:\Program Files\Microchip\xc8\v2.45\pic\sources\c99\common\doprnt.c: 1205:         pre
      +                          c = -1;
  1261   002694  69E3               	setf	_prec& (0+255),b
  1262   002696  69E4               	setf	(_prec+1)& (0+255),b
  1263   002698                     
  1264                           ; BSR set to: 0
  1265                           ;C:\Program Files\Microchip\xc8\v2.45\pic\sources\c99\common\doprnt.c: 1439:   if (0
  1266   002698  51C4               	movf	vfpfcnvrt@fmt& (0+255),w,b
  1267   00269A  6ED9               	movwf	fsr2l,c
  1268   00269C  6ADA               	clrf	fsr2h,c
  1269   00269E  50DF               	movf	indf2,w,c
  1270   0026A0  6FCE               	movwf	vfpfcnvrt@cp& (0+255),b
  1271   0026A2                     
  1272                           ; BSR set to: 0
  1273   0026A2  C0CE  FFF6         	movff	vfpfcnvrt@cp,tblptrl
  1274   0026A6                     	if	1	;There is more than 1 active tblptr byte
  1275   0026A6  0E08               	movlw	high __smallconst
  1276   0026A8  6EF7               	movwf	tblptrh,c
  1277   0026AA                     	endif
  1278   0026AA                     	if	0	;tblptru may be non-zero
  1279   0026AA                     	endif
  1280   0026AA                     	if	0	;tblptru may be non-zero
  1281   0026AA                     	endif
  1282   0026AA  0008               	tblrd		*
  1283   0026AC  50F5               	movf	tablat,w,c
  1284   0026AE  0A75               	xorlw	117
  1285   0026B0  A4D8               	btfss	status,2,c
  1286   0026B2  EF5D  F013         	goto	u7191
  1287   0026B6  EF5F  F013         	goto	u7190
  1288   0026BA                     u7191:
  1289   0026BA  EFE0  F013         	goto	l6309
  1290   0026BE                     u7190:
  1291   0026BE                     
  1292                           ; BSR set to: 0
  1293                           ;C:\Program Files\Microchip\xc8\v2.45\pic\sources\c99\common\doprnt.c: 1452:     ) {;C:\
      +                          Program Files\Microchip\xc8\v2.45\pic\sources\c99\common\doprnt.c: 1495:    convarg.uint
      +                           = (vfpf_uint_t)(unsigned int)(*(unsigned int *)__va_arg(*(unsigned int **)ap, (unsigned
      +                           int)0));
  1294   0026BE  C0C5  FFD9         	movff	vfpfcnvrt@ap,fsr2l
  1295   0026C2  C0C6  FFDA         	movff	vfpfcnvrt@ap+1,fsr2h
  1296   0026C6  0E02               	movlw	2
  1297   0026C8  26DF               	addwf	indf2,f,c
  1298   0026CA  5CDF               	subwf	indf2,w,c
  1299   0026CC  6ED9               	movwf	fsr2l,c
  1300   0026CE  6ADA               	clrf	fsr2h,c
  1301   0026D0  CFDE F0C9          	movff	postinc2,vfpfcnvrt@convarg
  1302   0026D4  CFDE F0CA          	movff	postinc2,vfpfcnvrt@convarg+1
  1303   0026D8                     
  1304                           ; BSR set to: 0
  1305                           ;C:\Program Files\Microchip\xc8\v2.45\pic\sources\c99\common\doprnt.c: 1497:    *fmt = c
      +                          p+1;
  1306   0026D8  51C4               	movf	vfpfcnvrt@fmt& (0+255),w,b
  1307   0026DA  6ED9               	movwf	fsr2l,c
  1308   0026DC  6ADA               	clrf	fsr2h,c
  1309   0026DE  29CE               	incf	vfpfcnvrt@cp& (0+255),w,b
  1310   0026E0  6EDF               	movwf	indf2,c
  1311                           
  1312                           ;C:\Program Files\Microchip\xc8\v2.45\pic\sources\c99\common\doprnt.c: 1498:    switch (
      +                          *cp) {
  1313   0026E2  EFCA  F013         	goto	l6307
  1314   0026E6                     l6289:
  1315                           
  1316                           ; BSR set to: 0
  1317                           ;C:\Program Files\Microchip\xc8\v2.45\pic\sources\c99\common\doprnt.c: 1525:      c = si
      +                          zeof(dbuf);
  1318   0026E6  0E50               	movlw	80
  1319   0026E8  6FCD               	movwf	vfpfcnvrt@c& (0+255),b
  1320   0026EA                     l6291:
  1321                           
  1322                           ; BSR set to: 0
  1323                           ;C:\Program Files\Microchip\xc8\v2.45\pic\sources\c99\common\doprnt.c: 1527:       dbuf[
      +                          --c] = (convarg.uint % 10) + '0';
  1324   0026EA  07CD               	decf	vfpfcnvrt@c& (0+255),f,b
  1325   0026EC  0E00               	movlw	low _dbuf
  1326   0026EE  25CD               	addwf	vfpfcnvrt@c& (0+255),w,b
  1327   0026F0  6ED9               	movwf	fsr2l,c
  1328   0026F2  6ADA               	clrf	fsr2h,c
  1329   0026F4  0E01               	movlw	high _dbuf
  1330   0026F6  22DA               	addwfc	fsr2h,f,c
  1331   0026F8  C0C9  F060         	movff	vfpfcnvrt@convarg,___lwmod@dividend
  1332   0026FC  C0CA  F061         	movff	vfpfcnvrt@convarg+1,___lwmod@dividend+1
  1333   002700  0E00               	movlw	0
  1334   002702  6F63               	movwf	(___lwmod@divisor+1)& (0+255),b
  1335   002704  0E0A               	movlw	10
  1336   002706  6F62               	movwf	___lwmod@divisor& (0+255),b
  1337   002708  EC32  F01B         	call	___lwmod	;wreg free
  1338   00270C  0100               	movlb	0	; () banked
  1339   00270E  5160               	movf	?___lwmod& (0+255),w,b
  1340   002710  0F30               	addlw	48
  1341   002712  6EDF               	movwf	indf2,c
  1342   002714                     
  1343                           ; BSR set to: 0
  1344                           ;C:\Program Files\Microchip\xc8\v2.45\pic\sources\c99\common\doprnt.c: 1528:       conva
      +                          rg.uint /= 10;
  1345   002714  C0C9  F060         	movff	vfpfcnvrt@convarg,___lwdiv@dividend
  1346   002718  C0CA  F061         	movff	vfpfcnvrt@convarg+1,___lwdiv@dividend+1
  1347   00271C  0E00               	movlw	0
  1348   00271E  6F63               	movwf	(___lwdiv@divisor+1)& (0+255),b
  1349   002720  0E0A               	movlw	10
  1350   002722  6F62               	movwf	___lwdiv@divisor& (0+255),b
  1351   002724  ECBE  F01A         	call	___lwdiv	;wreg free
  1352   002728  C060  F0C9         	movff	?___lwdiv,vfpfcnvrt@convarg
  1353   00272C  C061  F0CA         	movff	?___lwdiv+1,vfpfcnvrt@convarg+1
  1354   002730                     
  1355                           ;C:\Program Files\Microchip\xc8\v2.45\pic\sources\c99\common\doprnt.c: 1532:      } whil
      +                          e (convarg.uint != 0 && c != 0);
  1356   002730  0100               	movlb	0	; () banked
  1357   002732  51C9               	movf	vfpfcnvrt@convarg& (0+255),w,b
  1358   002734  11CA               	iorwf	(vfpfcnvrt@convarg+1)& (0+255),w,b
  1359   002736  B4D8               	btfsc	status,2,c
  1360   002738  EFA0  F013         	goto	u7201
  1361   00273C  EFA2  F013         	goto	u7200
  1362   002740                     u7201:
  1363   002740  EFBF  F013         	goto	l6303
  1364   002744                     u7200:
  1365   002744                     
  1366                           ; BSR set to: 0
  1367   002744  51CD               	movf	vfpfcnvrt@c& (0+255),w,b
  1368   002746  A4D8               	btfss	status,2,c
  1369   002748  EFA8  F013         	goto	u7211
  1370   00274C  EFAA  F013         	goto	u7210
  1371   002750                     u7211:
  1372   002750  EF75  F013         	goto	l6291
  1373   002754                     u7210:
  1374   002754  EFBF  F013         	goto	l6303
  1375   002758                     l6299:
  1376                           
  1377                           ; BSR set to: 0
  1378                           ;C:\Program Files\Microchip\xc8\v2.45\pic\sources\c99\common\doprnt.c: 1534:       fputc
      +                          (dbuf[c++], fp);
  1379   002758  0E00               	movlw	low _dbuf
  1380   00275A  25CD               	addwf	vfpfcnvrt@c& (0+255),w,b
  1381   00275C  6ED9               	movwf	fsr2l,c
  1382   00275E  6ADA               	clrf	fsr2h,c
  1383   002760  0E01               	movlw	high _dbuf
  1384   002762  22DA               	addwfc	fsr2h,f,c
  1385   002764  50DF               	movf	indf2,w,c
  1386   002766  6FC7               	movwf	??_vfpfcnvrt& (0+255),b
  1387   002768  51C7               	movf	??_vfpfcnvrt& (0+255),w,b
  1388   00276A  6F60               	movwf	fputc@c& (0+255),b
  1389   00276C  6B61               	clrf	(fputc@c+1)& (0+255),b
  1390   00276E  C0C2  F062         	movff	vfpfcnvrt@fp,fputc@fp
  1391   002772  C0C3  F063         	movff	vfpfcnvrt@fp+1,fputc@fp+1
  1392   002776  EC71  F019         	call	_fputc	;wreg free
  1393   00277A  0100               	movlb	0	; () banked
  1394   00277C  2BCD               	incf	vfpfcnvrt@c& (0+255),f,b
  1395   00277E                     l6303:
  1396                           
  1397                           ; BSR set to: 0
  1398                           ;C:\Program Files\Microchip\xc8\v2.45\pic\sources\c99\common\doprnt.c: 1533:      while 
      +                          (c != sizeof(dbuf)) {
  1399   00277E  0E50               	movlw	80
  1400   002780  19CD               	xorwf	vfpfcnvrt@c& (0+255),w,b
  1401   002782  A4D8               	btfss	status,2,c
  1402   002784  EFC6  F013         	goto	u7221
  1403   002788  EFC8  F013         	goto	u7220
  1404   00278C                     u7221:
  1405   00278C  EFAC  F013         	goto	l6299
  1406   002790                     u7220:
  1407   002790  EFAF  F014         	goto	l936
  1408   002794                     l6307:
  1409                           
  1410                           ; BSR set to: 0
  1411   002794  C0CE  FFF6         	movff	vfpfcnvrt@cp,tblptrl
  1412   002798                     	if	1	;There is more than 1 active tblptr byte
  1413   002798  0E08               	movlw	high __smallconst
  1414   00279A  6EF7               	movwf	tblptrh,c
  1415   00279C                     	endif
  1416   00279C                     	if	0	;tblptru may be non-zero
  1417   00279C                     	endif
  1418   00279C                     	if	0	;tblptru may be non-zero
  1419   00279C                     	endif
  1420   00279C  0008               	tblrd		*
  1421   00279E  50F5               	movf	tablat,w,c
  1422   0027A0  6FC7               	movwf	??_vfpfcnvrt& (0+255),b
  1423   0027A2  6BC8               	clrf	(??_vfpfcnvrt+1)& (0+255),b
  1424                           
  1425                           ; Switch on 2 bytes has been partitioned into a top level switch of size 1, and 1 sub-sw
      +                          itches
  1426                           ; Switch size 1, requested type "simple"
  1427                           ; Number of cases is 1, Range of values is 0 to 0
  1428                           ; switch strategies available:
  1429                           ; Name         Instructions Cycles
  1430                           ; simple_byte            4     3 (average)
  1431                           ;	Chosen strategy is simple_byte
  1432   0027A4  51C8               	movf	(??_vfpfcnvrt+1)& (0+255),w,b
  1433   0027A6  0A00               	xorlw	0	; case 0
  1434   0027A8  B4D8               	btfsc	status,2,c
  1435   0027AA  EFD9  F013         	goto	l6501
  1436   0027AE  EFE0  F013         	goto	l6309
  1437   0027B2                     l6501:
  1438                           
  1439                           ; BSR set to: 0
  1440                           ; Switch size 1, requested type "simple"
  1441                           ; Number of cases is 1, Range of values is 117 to 117
  1442                           ; switch strategies available:
  1443                           ; Name         Instructions Cycles
  1444                           ; simple_byte            4     3 (average)
  1445                           ;	Chosen strategy is simple_byte
  1446   0027B2  51C7               	movf	??_vfpfcnvrt& (0+255),w,b
  1447   0027B4  0A75               	xorlw	117	; case 117
  1448   0027B6  B4D8               	btfsc	status,2,c
  1449   0027B8  EF73  F013         	goto	l6289
  1450   0027BC  EFE0  F013         	goto	l6309
  1451   0027C0                     l6309:
  1452                           
  1453                           ; BSR set to: 0
  1454                           ;C:\Program Files\Microchip\xc8\v2.45\pic\sources\c99\common\doprnt.c: 1689:   cp = *fmt
      +                          ;
  1455   0027C0  51C4               	movf	vfpfcnvrt@fmt& (0+255),w,b
  1456   0027C2  6ED9               	movwf	fsr2l,c
  1457   0027C4  6ADA               	clrf	fsr2h,c
  1458   0027C6  50DF               	movf	indf2,w,c
  1459   0027C8  6FCE               	movwf	vfpfcnvrt@cp& (0+255),b
  1460   0027CA                     
  1461                           ; BSR set to: 0
  1462                           ;C:\Program Files\Microchip\xc8\v2.45\pic\sources\c99\common\doprnt.c: 1690:   c = *cp;
  1463   0027CA  C0CE  FFF6         	movff	vfpfcnvrt@cp,tblptrl
  1464   0027CE                     	if	1	;There is more than 1 active tblptr byte
  1465   0027CE  0E08               	movlw	high __smallconst
  1466   0027D0  6EF7               	movwf	tblptrh,c
  1467   0027D2                     	endif
  1468   0027D2                     	if	0	;tblptru may be non-zero
  1469   0027D2                     	endif
  1470   0027D2                     	if	0	;tblptru may be non-zero
  1471   0027D2                     	endif
  1472   0027D2  0008               	tblrd		*
  1473   0027D4  CFF5 F0CD          	movff	tablat,vfpfcnvrt@c
  1474                           
  1475                           ;C:\Program Files\Microchip\xc8\v2.45\pic\sources\c99\common\doprnt.c: 1691:   switch(c)
      +                           {
  1476   0027D8  EFF9  F013         	goto	l6321
  1477   0027DC                     l6313:
  1478                           
  1479                           ; BSR set to: 0
  1480                           ;C:\Program Files\Microchip\xc8\v2.45\pic\sources\c99\common\doprnt.c: 1695:     cp++;
  1481   0027DC  2BCE               	incf	vfpfcnvrt@cp& (0+255),f,b
  1482                           
  1483                           ;C:\Program Files\Microchip\xc8\v2.45\pic\sources\c99\common\doprnt.c: 1696:     break;
  1484   0027DE  EF12  F014         	goto	l6323
  1485   0027E2                     l6315:
  1486                           
  1487                           ; BSR set to: 0
  1488                           ;C:\Program Files\Microchip\xc8\v2.45\pic\sources\c99\common\doprnt.c: 1721:     c = 'l'
      +                          ;
  1489   0027E2  0E6C               	movlw	108
  1490   0027E4  6FCD               	movwf	vfpfcnvrt@c& (0+255),b
  1491                           
  1492                           ;C:\Program Files\Microchip\xc8\v2.45\pic\sources\c99\common\doprnt.c: 1722:     break;
  1493   0027E6  EF12  F014         	goto	l6323
  1494   0027EA                     l6317:
  1495                           
  1496                           ; BSR set to: 0
  1497                           ;C:\Program Files\Microchip\xc8\v2.45\pic\sources\c99\common\doprnt.c: 1724:     c = 0;
  1498   0027EA  0E00               	movlw	0
  1499   0027EC  6FCD               	movwf	vfpfcnvrt@c& (0+255),b
  1500                           
  1501                           ;C:\Program Files\Microchip\xc8\v2.45\pic\sources\c99\common\doprnt.c: 1725:     break;
  1502   0027EE  EF12  F014         	goto	l6323
  1503   0027F2                     l6321:
  1504                           
  1505                           ; BSR set to: 0
  1506   0027F2  51CD               	movf	vfpfcnvrt@c& (0+255),w,b
  1507   0027F4  6FC7               	movwf	??_vfpfcnvrt& (0+255),b
  1508   0027F6  6BC8               	clrf	(??_vfpfcnvrt+1)& (0+255),b
  1509                           
  1510                           ; Switch on 2 bytes has been partitioned into a top level switch of size 1, and 1 sub-sw
      +                          itches
  1511                           ; Switch size 1, requested type "simple"
  1512                           ; Number of cases is 1, Range of values is 0 to 0
  1513                           ; switch strategies available:
  1514                           ; Name         Instructions Cycles
  1515                           ; simple_byte            4     3 (average)
  1516                           ;	Chosen strategy is simple_byte
  1517   0027F8  51C8               	movf	(??_vfpfcnvrt+1)& (0+255),w,b
  1518   0027FA  0A00               	xorlw	0	; case 0
  1519   0027FC  B4D8               	btfsc	status,2,c
  1520   0027FE  EF03  F014         	goto	l6503
  1521   002802  EFF5  F013         	goto	l6317
  1522   002806                     l6503:
  1523                           
  1524                           ; BSR set to: 0
  1525                           ; Switch size 1, requested type "simple"
  1526                           ; Number of cases is 3, Range of values is 76 to 108
  1527                           ; switch strategies available:
  1528                           ; Name         Instructions Cycles
  1529                           ; simple_byte           10     6 (average)
  1530                           ;	Chosen strategy is simple_byte
  1531   002806  51C7               	movf	??_vfpfcnvrt& (0+255),w,b
  1532   002808  0A4C               	xorlw	76	; case 76
  1533   00280A  B4D8               	btfsc	status,2,c
  1534   00280C  EFEE  F013         	goto	l6313
  1535   002810  0A2A               	xorlw	42	; case 102
  1536   002812  B4D8               	btfsc	status,2,c
  1537   002814  EFF1  F013         	goto	l6315
  1538   002818  0A0A               	xorlw	10	; case 108
  1539   00281A  B4D8               	btfsc	status,2,c
  1540   00281C  EFEE  F013         	goto	l6313
  1541   002820  EFF5  F013         	goto	l6317
  1542   002824                     l6323:
  1543                           
  1544                           ; BSR set to: 0
  1545   002824  C0CE  FFF6         	movff	vfpfcnvrt@cp,tblptrl
  1546   002828                     	if	1	;There is more than 1 active tblptr byte
  1547   002828  0E08               	movlw	high __smallconst
  1548   00282A  6EF7               	movwf	tblptrh,c
  1549   00282C                     	endif
  1550   00282C                     	if	0	;tblptru may be non-zero
  1551   00282C                     	endif
  1552   00282C                     	if	0	;tblptru may be non-zero
  1553   00282C                     	endif
  1554   00282C  0008               	tblrd		*
  1555   00282E  50F5               	movf	tablat,w,c
  1556   002830  0A66               	xorlw	102
  1557   002832  A4D8               	btfss	status,2,c
  1558   002834  EF1E  F014         	goto	u7231
  1559   002838  EF20  F014         	goto	u7230
  1560   00283C                     u7231:
  1561   00283C  EF95  F014         	goto	l6343
  1562   002840                     u7230:
  1563   002840  EF4C  F014         	goto	l6331
  1564   002844                     l6325:
  1565                           
  1566                           ; BSR set to: 0
  1567                           ;C:\Program Files\Microchip\xc8\v2.45\pic\sources\c99\common\doprnt.c: 1756:      convar
      +                          g.f = (long double)(*(double *)__va_arg(*(double **)ap, (double)0));
  1568   002844  C0C5  FFD9         	movff	vfpfcnvrt@ap,fsr2l
  1569   002848  C0C6  FFDA         	movff	vfpfcnvrt@ap+1,fsr2h
  1570   00284C  CFDF F0C7          	movff	indf2,??_vfpfcnvrt
  1571   002850  0E04               	movlw	4
  1572   002852  26DF               	addwf	indf2,f,c
  1573   002854  51C7               	movf	??_vfpfcnvrt& (0+255),w,b
  1574   002856  6ED9               	movwf	fsr2l,c
  1575   002858  6ADA               	clrf	fsr2h,c
  1576   00285A  CFDE F0C9          	movff	postinc2,vfpfcnvrt@convarg
  1577   00285E  CFDE F0CA          	movff	postinc2,vfpfcnvrt@convarg+1
  1578   002862  CFDE F0CB          	movff	postinc2,vfpfcnvrt@convarg+2
  1579   002866  CFDE F0CC          	movff	postinc2,vfpfcnvrt@convarg+3
  1580                           
  1581                           ;C:\Program Files\Microchip\xc8\v2.45\pic\sources\c99\common\doprnt.c: 1757:      break;
  1582   00286A  EF61  F014         	goto	l6333
  1583   00286E                     l6327:
  1584                           
  1585                           ; BSR set to: 0
  1586                           ;C:\Program Files\Microchip\xc8\v2.45\pic\sources\c99\common\doprnt.c: 1759:      convar
      +                          g.f = (long double)(*(long double *)__va_arg(*(long double **)ap, (long double)0));
  1587   00286E  C0C5  FFD9         	movff	vfpfcnvrt@ap,fsr2l
  1588   002872  C0C6  FFDA         	movff	vfpfcnvrt@ap+1,fsr2h
  1589   002876  CFDF F0C7          	movff	indf2,??_vfpfcnvrt
  1590   00287A  0E04               	movlw	4
  1591   00287C  26DF               	addwf	indf2,f,c
  1592   00287E  51C7               	movf	??_vfpfcnvrt& (0+255),w,b
  1593   002880  6ED9               	movwf	fsr2l,c
  1594   002882  6ADA               	clrf	fsr2h,c
  1595   002884  CFDE F0C9          	movff	postinc2,vfpfcnvrt@convarg
  1596   002888  CFDE F0CA          	movff	postinc2,vfpfcnvrt@convarg+1
  1597   00288C  CFDE F0CB          	movff	postinc2,vfpfcnvrt@convarg+2
  1598   002890  CFDE F0CC          	movff	postinc2,vfpfcnvrt@convarg+3
  1599                           
  1600                           ;C:\Program Files\Microchip\xc8\v2.45\pic\sources\c99\common\doprnt.c: 1760:      break;
  1601   002894  EF61  F014         	goto	l6333
  1602   002898                     l6331:
  1603                           
  1604                           ; BSR set to: 0
  1605   002898  51CD               	movf	vfpfcnvrt@c& (0+255),w,b
  1606   00289A  6FC7               	movwf	??_vfpfcnvrt& (0+255),b
  1607   00289C  6BC8               	clrf	(??_vfpfcnvrt+1)& (0+255),b
  1608                           
  1609                           ; Switch on 2 bytes has been partitioned into a top level switch of size 1, and 1 sub-sw
      +                          itches
  1610                           ; Switch size 1, requested type "simple"
  1611                           ; Number of cases is 1, Range of values is 0 to 0
  1612                           ; switch strategies available:
  1613                           ; Name         Instructions Cycles
  1614                           ; simple_byte            4     3 (average)
  1615                           ;	Chosen strategy is simple_byte
  1616   00289E  51C8               	movf	(??_vfpfcnvrt+1)& (0+255),w,b
  1617   0028A0  0A00               	xorlw	0	; case 0
  1618   0028A2  B4D8               	btfsc	status,2,c
  1619   0028A4  EF56  F014         	goto	l6505
  1620   0028A8  EF61  F014         	goto	l6333
  1621   0028AC                     l6505:
  1622                           
  1623                           ; BSR set to: 0
  1624                           ; Switch size 1, requested type "simple"
  1625                           ; Number of cases is 2, Range of values is 76 to 108
  1626                           ; switch strategies available:
  1627                           ; Name         Instructions Cycles
  1628                           ; simple_byte            7     4 (average)
  1629                           ;	Chosen strategy is simple_byte
  1630   0028AC  51C7               	movf	??_vfpfcnvrt& (0+255),w,b
  1631   0028AE  0A4C               	xorlw	76	; case 76
  1632   0028B0  B4D8               	btfsc	status,2,c
  1633   0028B2  EF37  F014         	goto	l6327
  1634   0028B6  0A20               	xorlw	32	; case 108
  1635   0028B8  B4D8               	btfsc	status,2,c
  1636   0028BA  EF22  F014         	goto	l6325
  1637   0028BE  EF61  F014         	goto	l6333
  1638   0028C2                     l6333:
  1639                           
  1640                           ; BSR set to: 0
  1641                           ;C:\Program Files\Microchip\xc8\v2.45\pic\sources\c99\common\doprnt.c: 1762:    *fmt = c
      +                          p+1;
  1642   0028C2  51C4               	movf	vfpfcnvrt@fmt& (0+255),w,b
  1643   0028C4  6ED9               	movwf	fsr2l,c
  1644   0028C6  6ADA               	clrf	fsr2h,c
  1645   0028C8  29CE               	incf	vfpfcnvrt@cp& (0+255),w,b
  1646   0028CA  6EDF               	movwf	indf2,c
  1647                           
  1648                           ;C:\Program Files\Microchip\xc8\v2.45\pic\sources\c99\common\doprnt.c: 1763:    switch (
      +                          *cp) {
  1649   0028CC  EF7F  F014         	goto	l6341
  1650   0028D0                     l6335:
  1651                           
  1652                           ; BSR set to: 0
  1653                           ;C:\Program Files\Microchip\xc8\v2.45\pic\sources\c99\common\doprnt.c: 1790:      return
      +                           (void) efgtoa(fp, convarg.f, *cp);;	Return value of _vfpfcnvrt is never used
  1654   0028D0  C0C2  F08D         	movff	vfpfcnvrt@fp,efgtoa@fp
  1655   0028D4  C0C3  F08E         	movff	vfpfcnvrt@fp+1,efgtoa@fp+1
  1656   0028D8  C0C9  F08F         	movff	vfpfcnvrt@convarg,efgtoa@f
  1657   0028DC  C0CA  F090         	movff	vfpfcnvrt@convarg+1,efgtoa@f+1
  1658   0028E0  C0CB  F091         	movff	vfpfcnvrt@convarg+2,efgtoa@f+2
  1659   0028E4  C0CC  F092         	movff	vfpfcnvrt@convarg+3,efgtoa@f+3
  1660   0028E8  C0CE  FFF6         	movff	vfpfcnvrt@cp,tblptrl
  1661   0028EC                     	if	1	;There is more than 1 active tblptr byte
  1662   0028EC  0E08               	movlw	high __smallconst
  1663   0028EE  6EF7               	movwf	tblptrh,c
  1664   0028F0                     	endif
  1665   0028F0                     	if	0	;tblptru may be non-zero
  1666   0028F0                     	endif
  1667   0028F0                     	if	0	;tblptru may be non-zero
  1668   0028F0                     	endif
  1669   0028F0  0008               	tblrd		*
  1670   0028F2  CFF5 F093          	movff	tablat,efgtoa@c
  1671   0028F6  EC0B  F004         	call	_efgtoa	;wreg free
  1672   0028FA  EFAF  F014         	goto	l936
  1673   0028FE                     l6341:
  1674                           
  1675                           ; BSR set to: 0
  1676   0028FE  C0CE  FFF6         	movff	vfpfcnvrt@cp,tblptrl
  1677   002902                     	if	1	;There is more than 1 active tblptr byte
  1678   002902  0E08               	movlw	high __smallconst
  1679   002904  6EF7               	movwf	tblptrh,c
  1680   002906                     	endif
  1681   002906                     	if	0	;tblptru may be non-zero
  1682   002906                     	endif
  1683   002906                     	if	0	;tblptru may be non-zero
  1684   002906                     	endif
  1685   002906  0008               	tblrd		*
  1686   002908  50F5               	movf	tablat,w,c
  1687   00290A  6FC7               	movwf	??_vfpfcnvrt& (0+255),b
  1688   00290C  6BC8               	clrf	(??_vfpfcnvrt+1)& (0+255),b
  1689                           
  1690                           ; Switch on 2 bytes has been partitioned into a top level switch of size 1, and 1 sub-sw
      +                          itches
  1691                           ; Switch size 1, requested type "simple"
  1692                           ; Number of cases is 1, Range of values is 0 to 0
  1693                           ; switch strategies available:
  1694                           ; Name         Instructions Cycles
  1695                           ; simple_byte            4     3 (average)
  1696                           ;	Chosen strategy is simple_byte
  1697   00290E  51C8               	movf	(??_vfpfcnvrt+1)& (0+255),w,b
  1698   002910  0A00               	xorlw	0	; case 0
  1699   002912  B4D8               	btfsc	status,2,c
  1700   002914  EF8E  F014         	goto	l6507
  1701   002918  EF95  F014         	goto	l6343
  1702   00291C                     l6507:
  1703                           
  1704                           ; BSR set to: 0
  1705                           ; Switch size 1, requested type "simple"
  1706                           ; Number of cases is 1, Range of values is 102 to 102
  1707                           ; switch strategies available:
  1708                           ; Name         Instructions Cycles
  1709                           ; simple_byte            4     3 (average)
  1710                           ;	Chosen strategy is simple_byte
  1711   00291C  51C7               	movf	??_vfpfcnvrt& (0+255),w,b
  1712   00291E  0A66               	xorlw	102	; case 102
  1713   002920  B4D8               	btfsc	status,2,c
  1714   002922  EF68  F014         	goto	l6335
  1715   002926  EF95  F014         	goto	l6343
  1716   00292A                     l6343:
  1717                           
  1718                           ;C:\Program Files\Microchip\xc8\v2.45\pic\sources\c99\common\doprnt.c: 1806:         ++*
      +                          fmt;
  1719   00292A  0100               	movlb	0	; () banked
  1720   00292C  51C4               	movf	vfpfcnvrt@fmt& (0+255),w,b
  1721   00292E  6ED9               	movwf	fsr2l,c
  1722   002930  6ADA               	clrf	fsr2h,c
  1723   002932  2ADF               	incf	indf2,f,c
  1724   002934  EFAF  F014         	goto	l936
  1725   002938                     l6347:
  1726                           
  1727                           ; BSR set to: 0
  1728                           ;C:\Program Files\Microchip\xc8\v2.45\pic\sources\c99\common\doprnt.c: 1811:     fputc((
      +                          int)(*fmt)[0], fp);
  1729   002938  51C4               	movf	vfpfcnvrt@fmt& (0+255),w,b
  1730   00293A  6ED9               	movwf	fsr2l,c
  1731   00293C  6ADA               	clrf	fsr2h,c
  1732   00293E  CFDF FFF6          	movff	indf2,tblptrl
  1733   002942                     	if	1	;There is more than 1 active tblptr byte
  1734   002942  0E08               	movlw	high __smallconst
  1735   002944  6EF7               	movwf	tblptrh,c
  1736   002946                     	endif
  1737   002946                     	if	0	;tblptru may be non-zero
  1738   002946                     	endif
  1739   002946                     	if	0	;tblptru may be non-zero
  1740   002946                     	endif
  1741   002946  0008               	tblrd		*
  1742   002948  50F5               	movf	tablat,w,c
  1743   00294A  6F60               	movwf	fputc@c& (0+255),b
  1744   00294C  6B61               	clrf	(fputc@c+1)& (0+255),b
  1745   00294E  C0C2  F062         	movff	vfpfcnvrt@fp,fputc@fp
  1746   002952  C0C3  F063         	movff	vfpfcnvrt@fp+1,fputc@fp+1
  1747   002956  EC71  F019         	call	_fputc	;wreg free
  1748   00295A  EF95  F014         	goto	l6343
  1749   00295E                     l936:
  1750   00295E  0012               	return		;funcret
  1751   002960                     __end_of_vfpfcnvrt:
  1752                           	callstack 0
  1753                           
  1754 ;; *************** function _efgtoa *****************
  1755 ;; Defined at:
  1756 ;;		line 587 in file "C:\Program Files\Microchip\xc8\v2.45\pic\sources\c99\common\doprnt.c"
  1757 ;; Parameters:    Size  Location     Type
  1758 ;;  fp              2   45[BANK0 ] PTR struct _IO_FILE
  1759 ;;		 -> sprintf@f(12), 
  1760 ;;  f               4   47[BANK0 ] PTR struct _IO_FILE
  1761 ;;  c               1   51[BANK0 ] unsigned char 
  1762 ;; Auto vars:     Size  Location     Type
  1763 ;;  u               4   94[BANK0 ] struct flui
  1764 ;;  g               4   88[BANK0 ] struct flui
  1765 ;;  l               4   83[BANK0 ] struct flui
  1766 ;;  h               4   79[BANK0 ] struct flui
  1767 ;;  ou              4   73[BANK0 ] struct flui
  1768 ;;  n               2   92[BANK0 ] int 
  1769 ;;  i               2   77[BANK0 ] int 
  1770 ;;  w               2   71[BANK0 ] int 
  1771 ;;  e               2   69[BANK0 ] int 
  1772 ;;  m               2   67[BANK0 ] int 
  1773 ;;  d               2   65[BANK0 ] int 
  1774 ;;  t               2   58[BANK0 ] int 
  1775 ;;  p               2   56[BANK0 ] int 
  1776 ;;  ne              2   54[BANK0 ] int 
  1777 ;;  sign            1   87[BANK0 ] unsigned char 
  1778 ;;  nmode           1   64[BANK0 ] unsigned char 
  1779 ;;  mode            1   63[BANK0 ] unsigned char 
  1780 ;;  pp              1   62[BANK0 ] unsigned char 
  1781 ;;  esign           1    0        unsigned char 
  1782 ;; Return value:  Size  Location     Type
  1783 ;;                  1    wreg      void 
  1784 ;; Registers used:
  1785 ;;		wreg, fsr1l, fsr1h, fsr2l, fsr2h, status,2, status,0, tblptrl, tblptrh, tblptru, prodl, prodh, cstack
  1786 ;; Tracked objects:
  1787 ;;		On entry : 0/0
  1788 ;;		On exit  : 0/0
  1789 ;;		Unchanged: 0/0
  1790 ;; Data sizes:     COMRAM   BANK0   BANK1   BANK2   BANK3   BANK4   BANK5   BANK6   BANK7
  1791 ;;      Params:         0       7       0       0       0       0       0       0       0
  1792 ;;      Locals:         0      44       0       0       0       0       0       0       0
  1793 ;;      Temps:          0       2       0       0       0       0       0       0       0
  1794 ;;      Totals:         0      53       0       0       0       0       0       0       0
  1795 ;;Total ram usage:       53 bytes
  1796 ;; Hardware stack levels used: 1
  1797 ;; Hardware stack levels required when called: 6
  1798 ;; This function calls:
  1799 ;;		___fladd
  1800 ;;		___fldiv
  1801 ;;		___fleq
  1802 ;;		___flge
  1803 ;;		___flmul
  1804 ;;		___flneg
  1805 ;;		___flsub
  1806 ;;		___fltol
  1807 ;;		___fpclassifyf
  1808 ;;		_floorf
  1809 ;;		_labs
  1810 ;;		_memcpy
  1811 ;;		_pad
  1812 ;;		_strcpy
  1813 ;; This function is called by:
  1814 ;;		_vfpfcnvrt
  1815 ;; This function uses a non-reentrant model
  1816 ;;
  1817                           
  1818                           	psect	text4
  1819   000816                     __ptext4:
  1820                           	callstack 0
  1821   000816                     _efgtoa:
  1822                           	callstack 21
  1823   000816                     
  1824                           ;C:\Program Files\Microchip\xc8\v2.45\pic\sources\c99\common\doprnt.c: 587: static void 
      +                          efgtoa(FILE *fp, long double f, char c);C:\Program Files\Microchip\xc8\v2.45\pic\sources
      +                          \c99\common\doprnt.c: 588: {;C:\Program Files\Microchip\xc8\v2.45\pic\sources\c99\common
      +                          \doprnt.c: 589:     char mode, nmode, pp, sign, esign;;C:\Program Files\Microchip\xc8\v2
      +                          .45\pic\sources\c99\common\doprnt.c: 590:     int d, e, i, m, n, ne, p, t, w;;C:\Program
      +                           Files\Microchip\xc8\v2.45\pic\sources\c99\common\doprnt.c: 591:     long double h, l;
  1825   000816  0E00               	movlw	0
  1826   000818  0100               	movlb	0	; () banked
  1827   00081A  6FB7               	movwf	efgtoa@sign& (0+255),b
  1828   00081C                     
  1829                           ; BSR set to: 0
  1830                           ;C:\Program Files\Microchip\xc8\v2.45\pic\sources\c99\common\doprnt.c: 596:     g.f = f;
  1831   00081C  C08F  F0B8         	movff	efgtoa@f,efgtoa@g
  1832   000820  C090  F0B9         	movff	efgtoa@f+1,efgtoa@g+1
  1833   000824  C091  F0BA         	movff	efgtoa@f+2,efgtoa@g+2
  1834   000828  C092  F0BB         	movff	efgtoa@f+3,efgtoa@g+3
  1835   00082C                     
  1836                           ; BSR set to: 0
  1837                           ;C:\Program Files\Microchip\xc8\v2.45\pic\sources\c99\common\doprnt.c: 597:     if (g.f 
      +                          < 0.0) {
  1838   00082C  BFBB               	btfsc	(efgtoa@g+3)& (0+255),7,b
  1839   00082E  EF1D  F004         	goto	u6860
  1840   000832  EF1B  F004         	goto	u6861
  1841   000836                     u6861:
  1842   000836  EF31  F004         	goto	l6061
  1843   00083A                     u6860:
  1844   00083A                     
  1845                           ; BSR set to: 0
  1846                           ;C:\Program Files\Microchip\xc8\v2.45\pic\sources\c99\common\doprnt.c: 598:         sign
      +                           = 1;
  1847   00083A  0E01               	movlw	1
  1848   00083C  6FB7               	movwf	efgtoa@sign& (0+255),b
  1849   00083E                     
  1850                           ; BSR set to: 0
  1851                           ;C:\Program Files\Microchip\xc8\v2.45\pic\sources\c99\common\doprnt.c: 599:         g.f 
      +                          = -g.f;
  1852   00083E  C0B8  F060         	movff	efgtoa@g,___flneg@f1
  1853   000842  C0B9  F061         	movff	efgtoa@g+1,___flneg@f1+1
  1854   000846  C0BA  F062         	movff	efgtoa@g+2,___flneg@f1+2
  1855   00084A  C0BB  F063         	movff	efgtoa@g+3,___flneg@f1+3
  1856   00084E  ECB3  F01C         	call	___flneg	;wreg free
  1857   000852  C060  F0B8         	movff	?___flneg,efgtoa@g
  1858   000856  C061  F0B9         	movff	?___flneg+1,efgtoa@g+1
  1859   00085A  C062  F0BA         	movff	?___flneg+2,efgtoa@g+2
  1860   00085E  C063  F0BB         	movff	?___flneg+3,efgtoa@g+3
  1861   000862                     l6061:
  1862                           
  1863                           ;C:\Program Files\Microchip\xc8\v2.45\pic\sources\c99\common\doprnt.c: 603:     n = 0;
  1864   000862  0E00               	movlw	0
  1865   000864  0100               	movlb	0	; () banked
  1866   000866  6FBD               	movwf	(efgtoa@n+1)& (0+255),b
  1867   000868  0E00               	movlw	0
  1868   00086A  6FBC               	movwf	efgtoa@n& (0+255),b
  1869   00086C                     
  1870                           ; BSR set to: 0
  1871                           ;C:\Program Files\Microchip\xc8\v2.45\pic\sources\c99\common\doprnt.c: 604:     w = widt
      +                          h;
  1872   00086C  C0E1  F0A7         	movff	_width,efgtoa@w
  1873   000870  C0E2  F0A8         	movff	_width+1,efgtoa@w+1
  1874   000874                     
  1875                           ; BSR set to: 0
  1876                           ;C:\Program Files\Microchip\xc8\v2.45\pic\sources\c99\common\doprnt.c: 605:     if (sign
  1877   000874  51B7               	movf	efgtoa@sign& (0+255),w,b
  1878   000876  B4D8               	btfsc	status,2,c
  1879   000878  EF40  F004         	goto	u6871
  1880   00087C  EF42  F004         	goto	u6870
  1881   000880                     u6871:
  1882   000880  EF56  F004         	goto	l6075
  1883   000884                     u6870:
  1884   000884                     
  1885                           ; BSR set to: 0
  1886                           ;C:\Program Files\Microchip\xc8\v2.45\pic\sources\c99\common\doprnt.c: 609:    ) {;C:\Pr
      +                          ogram Files\Microchip\xc8\v2.45\pic\sources\c99\common\doprnt.c: 610:   sign = sign ? '-
      +                          ' : '+';
  1887   000884  51B7               	movf	efgtoa@sign& (0+255),w,b
  1888   000886  A4D8               	btfss	status,2,c
  1889   000888  EF48  F004         	goto	u6881
  1890   00088C  EF4A  F004         	goto	u6880
  1891   000890                     u6881:
  1892   000890  EF50  F004         	goto	l6071
  1893   000894                     u6880:
  1894   000894                     
  1895                           ; BSR set to: 0
  1896   000894  0E00               	movlw	0
  1897   000896  6F9D               	movwf	(_efgtoa$1012+1)& (0+255),b
  1898   000898  0E2B               	movlw	43
  1899   00089A  6F9C               	movwf	_efgtoa$1012& (0+255),b
  1900   00089C  EF54  F004         	goto	l6073
  1901   0008A0                     l6071:
  1902                           
  1903                           ; BSR set to: 0
  1904   0008A0  0E00               	movlw	0
  1905   0008A2  6F9D               	movwf	(_efgtoa$1012+1)& (0+255),b
  1906   0008A4  0E2D               	movlw	45
  1907   0008A6  6F9C               	movwf	_efgtoa$1012& (0+255),b
  1908   0008A8                     l6073:
  1909                           
  1910                           ; BSR set to: 0
  1911   0008A8  C09C  F0B7         	movff	_efgtoa$1012,efgtoa@sign
  1912   0008AC                     l6075:
  1913                           
  1914                           ; BSR set to: 0
  1915                           ;C:\Program Files\Microchip\xc8\v2.45\pic\sources\c99\common\doprnt.c: 619:     if (( __
      +                          fpclassifyf(g.f) == 1 )) {
  1916   0008AC  C0B8  F060         	movff	efgtoa@g,___fpclassifyf@x
  1917   0008B0  C0B9  F061         	movff	efgtoa@g+1,___fpclassifyf@x+1
  1918   0008B4  C0BA  F062         	movff	efgtoa@g+2,___fpclassifyf@x+2
  1919   0008B8  C0BB  F063         	movff	efgtoa@g+3,___fpclassifyf@x+3
  1920   0008BC  EC1F  F018         	call	___fpclassifyf	;wreg free
  1921   0008C0  0100               	movlb	0	; () banked
  1922   0008C2  0560               	decf	?___fpclassifyf& (0+255),w,b
  1923   0008C4  1161               	iorwf	(?___fpclassifyf+1)& (0+255),w,b
  1924   0008C6  A4D8               	btfss	status,2,c
  1925   0008C8  EF68  F004         	goto	u6891
  1926   0008CC  EF6A  F004         	goto	u6890
  1927   0008D0                     u6891:
  1928   0008D0  EF9A  F004         	goto	l6093
  1929   0008D4                     u6890:
  1930   0008D4                     
  1931                           ; BSR set to: 0
  1932                           ;C:\Program Files\Microchip\xc8\v2.45\pic\sources\c99\common\doprnt.c: 620:   if (sign) 
      +                          {
  1933   0008D4  51B7               	movf	efgtoa@sign& (0+255),w,b
  1934   0008D6  B4D8               	btfsc	status,2,c
  1935   0008D8  EF70  F004         	goto	u6901
  1936   0008DC  EF72  F004         	goto	u6900
  1937   0008E0                     u6901:
  1938   0008E0  EF7B  F004         	goto	l6085
  1939   0008E4                     u6900:
  1940   0008E4                     
  1941                           ; BSR set to: 0
  1942                           ;C:\Program Files\Microchip\xc8\v2.45\pic\sources\c99\common\doprnt.c: 621:    dbuf[0] =
      +                           sign;
  1943   0008E4  C0B7  F100         	movff	efgtoa@sign,_dbuf
  1944   0008E8                     
  1945                           ; BSR set to: 0
  1946                           ;C:\Program Files\Microchip\xc8\v2.45\pic\sources\c99\common\doprnt.c: 622:    w--;
  1947   0008E8  07A7               	decf	efgtoa@w& (0+255),f,b
  1948   0008EA  A0D8               	btfss	status,0,c
  1949   0008EC  07A8               	decf	(efgtoa@w+1)& (0+255),f,b
  1950   0008EE                     
  1951                           ; BSR set to: 0
  1952                           ;C:\Program Files\Microchip\xc8\v2.45\pic\sources\c99\common\doprnt.c: 623:    n = 1;
  1953   0008EE  0E00               	movlw	0
  1954   0008F0  6FBD               	movwf	(efgtoa@n+1)& (0+255),b
  1955   0008F2  0E01               	movlw	1
  1956   0008F4  6FBC               	movwf	efgtoa@n& (0+255),b
  1957   0008F6                     l6085:
  1958                           
  1959                           ; BSR set to: 0
  1960                           ;C:\Program Files\Microchip\xc8\v2.45\pic\sources\c99\common\doprnt.c: 631:   {;C:\Progr
      +                          am Files\Microchip\xc8\v2.45\pic\sources\c99\common\doprnt.c: 632:             strcpy(&d
      +                          buf[n], "inf");
  1961   0008F6  0E00               	movlw	low _dbuf
  1962   0008F8  25BC               	addwf	efgtoa@n& (0+255),w,b
  1963   0008FA  6F60               	movwf	strcpy@dest& (0+255),b
  1964   0008FC  0E01               	movlw	high _dbuf
  1965   0008FE  21BD               	addwfc	(efgtoa@n+1)& (0+255),w,b
  1966   000900  6F61               	movwf	(strcpy@dest+1)& (0+255),b
  1967   000902  0E0D               	movlw	low STR_3
  1968   000904  6F62               	movwf	strcpy@src& (0+255),b
  1969   000906  EC77  F01C         	call	_strcpy	;wreg free
  1970   00090A                     l6087:
  1971                           
  1972                           ;C:\Program Files\Microchip\xc8\v2.45\pic\sources\c99\common\doprnt.c: 633:         };C:
      +                          \Program Files\Microchip\xc8\v2.45\pic\sources\c99\common\doprnt.c: 634:         w -= ((
      +                          sizeof("inf")/sizeof("inf"[0]))-1);
  1973   00090A  0100               	movlb	0	; () banked
  1974   00090C  0EFD               	movlw	253
  1975   00090E  27A7               	addwf	efgtoa@w& (0+255),f,b
  1976   000910  0EFF               	movlw	255
  1977   000912  23A8               	addwfc	(efgtoa@w+1)& (0+255),f,b
  1978   000914                     
  1979                           ; BSR set to: 0
  1980                           ;C:\Program Files\Microchip\xc8\v2.45\pic\sources\c99\common\doprnt.c: 635:         retu
      +                          rn (void) pad(fp, &dbuf[0], w);
  1981   000914  C08D  F070         	movff	efgtoa@fp,pad@fp
  1982   000918  C08E  F071         	movff	efgtoa@fp+1,pad@fp+1
  1983   00091C  0E00               	movlw	low _dbuf
  1984   00091E  6F72               	movwf	pad@buf& (0+255),b
  1985   000920  0E01               	movlw	high _dbuf
  1986   000922  6F73               	movwf	(pad@buf+1)& (0+255),b
  1987   000924  C0A7  F074         	movff	efgtoa@w,pad@p
  1988   000928  C0A8  F075         	movff	efgtoa@w+1,pad@p+1
  1989   00092C  ECF9  F01A         	call	_pad	;wreg free
  1990   000930  EF06  F009         	goto	l879
  1991   000934                     l6093:
  1992                           
  1993                           ; BSR set to: 0
  1994                           ;C:\Program Files\Microchip\xc8\v2.45\pic\sources\c99\common\doprnt.c: 637:     if (( __
      +                          fpclassifyf(g.f) == 0 )) {
  1995   000934  C0B8  F060         	movff	efgtoa@g,___fpclassifyf@x
  1996   000938  C0B9  F061         	movff	efgtoa@g+1,___fpclassifyf@x+1
  1997   00093C  C0BA  F062         	movff	efgtoa@g+2,___fpclassifyf@x+2
  1998   000940  C0BB  F063         	movff	efgtoa@g+3,___fpclassifyf@x+3
  1999   000944  EC1F  F018         	call	___fpclassifyf	;wreg free
  2000   000948  0100               	movlb	0	; () banked
  2001   00094A  5160               	movf	?___fpclassifyf& (0+255),w,b
  2002   00094C  1161               	iorwf	(?___fpclassifyf+1)& (0+255),w,b
  2003   00094E  A4D8               	btfss	status,2,c
  2004   000950  EFAC  F004         	goto	u6911
  2005   000954  EFAE  F004         	goto	u6910
  2006   000958                     u6911:
  2007   000958  EFCB  F004         	goto	l6111
  2008   00095C                     u6910:
  2009   00095C                     
  2010                           ; BSR set to: 0
  2011                           ;C:\Program Files\Microchip\xc8\v2.45\pic\sources\c99\common\doprnt.c: 638:   if (sign) 
      +                          {
  2012   00095C  51B7               	movf	efgtoa@sign& (0+255),w,b
  2013   00095E  B4D8               	btfsc	status,2,c
  2014   000960  EFB4  F004         	goto	u6921
  2015   000964  EFB6  F004         	goto	u6920
  2016   000968                     u6921:
  2017   000968  EFBF  F004         	goto	l6103
  2018   00096C                     u6920:
  2019   00096C                     
  2020                           ; BSR set to: 0
  2021                           ;C:\Program Files\Microchip\xc8\v2.45\pic\sources\c99\common\doprnt.c: 639:    dbuf[0] =
      +                           sign;
  2022   00096C  C0B7  F100         	movff	efgtoa@sign,_dbuf
  2023   000970                     
  2024                           ; BSR set to: 0
  2025                           ;C:\Program Files\Microchip\xc8\v2.45\pic\sources\c99\common\doprnt.c: 640:    w--;
  2026   000970  07A7               	decf	efgtoa@w& (0+255),f,b
  2027   000972  A0D8               	btfss	status,0,c
  2028   000974  07A8               	decf	(efgtoa@w+1)& (0+255),f,b
  2029   000976                     
  2030                           ; BSR set to: 0
  2031                           ;C:\Program Files\Microchip\xc8\v2.45\pic\sources\c99\common\doprnt.c: 641:    n = 1;
  2032   000976  0E00               	movlw	0
  2033   000978  6FBD               	movwf	(efgtoa@n+1)& (0+255),b
  2034   00097A  0E01               	movlw	1
  2035   00097C  6FBC               	movwf	efgtoa@n& (0+255),b
  2036   00097E                     l6103:
  2037                           
  2038                           ; BSR set to: 0
  2039                           ;C:\Program Files\Microchip\xc8\v2.45\pic\sources\c99\common\doprnt.c: 649:   {;C:\Progr
      +                          am Files\Microchip\xc8\v2.45\pic\sources\c99\common\doprnt.c: 650:             strcpy(&d
      +                          buf[n], "nan");
  2040   00097E  0E00               	movlw	low _dbuf
  2041   000980  25BC               	addwf	efgtoa@n& (0+255),w,b
  2042   000982  6F60               	movwf	strcpy@dest& (0+255),b
  2043   000984  0E01               	movlw	high _dbuf
  2044   000986  21BD               	addwfc	(efgtoa@n+1)& (0+255),w,b
  2045   000988  6F61               	movwf	(strcpy@dest+1)& (0+255),b
  2046   00098A  0E11               	movlw	low STR_6
  2047   00098C  6F62               	movwf	strcpy@src& (0+255),b
  2048   00098E  EC77  F01C         	call	_strcpy	;wreg free
  2049   000992  EF85  F004         	goto	l6087
  2050   000996                     l6111:
  2051                           
  2052                           ; BSR set to: 0
  2053                           ;C:\Program Files\Microchip\xc8\v2.45\pic\sources\c99\common\doprnt.c: 657:     u.f = 1.
      +                          0;
  2054   000996  0E00               	movlw	0
  2055   000998  6FBE               	movwf	efgtoa@u& (0+255),b
  2056   00099A  0E00               	movlw	0
  2057   00099C  6FBF               	movwf	(efgtoa@u+1)& (0+255),b
  2058   00099E  0E80               	movlw	128
  2059   0009A0  6FC0               	movwf	(efgtoa@u+2)& (0+255),b
  2060   0009A2  0E3F               	movlw	63
  2061   0009A4  6FC1               	movwf	(efgtoa@u+3)& (0+255),b
  2062                           
  2063                           ;C:\Program Files\Microchip\xc8\v2.45\pic\sources\c99\common\doprnt.c: 658:     e = 0;
  2064   0009A6  0E00               	movlw	0
  2065   0009A8  6FA6               	movwf	(efgtoa@e+1)& (0+255),b
  2066   0009AA  0E00               	movlw	0
  2067   0009AC  6FA5               	movwf	efgtoa@e& (0+255),b
  2068   0009AE                     
  2069                           ; BSR set to: 0
  2070                           ;C:\Program Files\Microchip\xc8\v2.45\pic\sources\c99\common\doprnt.c: 659:  if (!(g.f =
      +                          = 0.0)) {
  2071   0009AE  C0B8  F060         	movff	efgtoa@g,___fleq@ff1
  2072   0009B2  C0B9  F061         	movff	efgtoa@g+1,___fleq@ff1+1
  2073   0009B6  C0BA  F062         	movff	efgtoa@g+2,___fleq@ff1+2
  2074   0009BA  C0BB  F063         	movff	efgtoa@g+3,___fleq@ff1+3
  2075   0009BE  0E00               	movlw	0
  2076   0009C0  6F64               	movwf	___fleq@ff2& (0+255),b
  2077   0009C2  0E00               	movlw	0
  2078   0009C4  6F65               	movwf	(___fleq@ff2+1)& (0+255),b
  2079   0009C6  0E00               	movlw	0
  2080   0009C8  6F66               	movwf	(___fleq@ff2+2)& (0+255),b
  2081   0009CA  0E00               	movlw	0
  2082   0009CC  6F67               	movwf	(___fleq@ff2+3)& (0+255),b
  2083   0009CE  ECCF  F019         	call	___fleq	;wreg free
  2084   0009D2  0100               	movlb	0	; () banked
  2085   0009D4  B0D8               	btfsc	status,0,c
  2086   0009D6  EFEF  F004         	goto	u6931
  2087   0009DA  EFF1  F004         	goto	u6930
  2088   0009DE                     u6931:
  2089   0009DE  EFD3  F005         	goto	l882
  2090   0009E2                     u6930:
  2091   0009E2  EFFD  F004         	goto	l6119
  2092   0009E6                     l884:
  2093                           
  2094                           ; BSR set to: 0
  2095                           ;C:\Program Files\Microchip\xc8\v2.45\pic\sources\c99\common\doprnt.c: 661:    u = ou;
  2096   0009E6  C0A9  F0BE         	movff	efgtoa@ou,efgtoa@u
  2097   0009EA  C0AA  F0BF         	movff	efgtoa@ou+1,efgtoa@u+1
  2098   0009EE  C0AB  F0C0         	movff	efgtoa@ou+2,efgtoa@u+2
  2099   0009F2  C0AC  F0C1         	movff	efgtoa@ou+3,efgtoa@u+3
  2100   0009F6                     
  2101                           ; BSR set to: 0
  2102                           ;C:\Program Files\Microchip\xc8\v2.45\pic\sources\c99\common\doprnt.c: 662:    ++e;
  2103   0009F6  4BA5               	infsnz	efgtoa@e& (0+255),f,b
  2104   0009F8  2BA6               	incf	(efgtoa@e+1)& (0+255),f,b
  2105   0009FA                     l6119:
  2106                           
  2107                           ; BSR set to: 0
  2108                           ;C:\Program Files\Microchip\xc8\v2.45\pic\sources\c99\common\doprnt.c: 660:   while ((la
      +                          bs((g).u-((ou.f = u.f*10.0,ou)).u) <= 1) || g.f > ou.f) {
  2109   0009FA  C0BE  F060         	movff	efgtoa@u,___flmul@b
  2110   0009FE  C0BF  F061         	movff	efgtoa@u+1,___flmul@b+1
  2111   000A02  C0C0  F062         	movff	efgtoa@u+2,___flmul@b+2
  2112   000A06  C0C1  F063         	movff	efgtoa@u+3,___flmul@b+3
  2113   000A0A  0E00               	movlw	0
  2114   000A0C  6F64               	movwf	___flmul@a& (0+255),b
  2115   000A0E  0E00               	movlw	0
  2116   000A10  6F65               	movwf	(___flmul@a+1)& (0+255),b
  2117   000A12  0E20               	movlw	32
  2118   000A14  6F66               	movwf	(___flmul@a+2)& (0+255),b
  2119   000A16  0E41               	movlw	65
  2120   000A18  6F67               	movwf	(___flmul@a+3)& (0+255),b
  2121   000A1A  EC68  F00B         	call	___flmul	;wreg free
  2122   000A1E  C060  F0A9         	movff	?___flmul,efgtoa@ou
  2123   000A22  C061  F0AA         	movff	?___flmul+1,efgtoa@ou+1
  2124   000A26  C062  F0AB         	movff	?___flmul+2,efgtoa@ou+2
  2125   000A2A  C063  F0AC         	movff	?___flmul+3,efgtoa@ou+3
  2126   000A2E  0100               	movlb	0	; () banked
  2127   000A30  51A9               	movf	efgtoa@ou& (0+255),w,b
  2128   000A32  5DB8               	subwf	efgtoa@g& (0+255),w,b
  2129   000A34  6F60               	movwf	labs@a& (0+255),b
  2130   000A36  51AA               	movf	(efgtoa@ou+1)& (0+255),w,b
  2131   000A38  59B9               	subwfb	(efgtoa@g+1)& (0+255),w,b
  2132   000A3A  6F61               	movwf	(labs@a+1)& (0+255),b
  2133   000A3C  51AB               	movf	(efgtoa@ou+2)& (0+255),w,b
  2134   000A3E  59BA               	subwfb	(efgtoa@g+2)& (0+255),w,b
  2135   000A40  6F62               	movwf	(labs@a+2)& (0+255),b
  2136   000A42  51AC               	movf	(efgtoa@ou+3)& (0+255),w,b
  2137   000A44  59BB               	subwfb	(efgtoa@g+3)& (0+255),w,b
  2138   000A46  6F63               	movwf	(labs@a+3)& (0+255),b
  2139   000A48  EC93  F01B         	call	_labs	;wreg free
  2140   000A4C  0100               	movlb	0	; () banked
  2141   000A4E  BF63               	btfsc	(?_labs+3)& (0+255),7,b
  2142   000A50  EF35  F005         	goto	u6941
  2143   000A54  5163               	movf	(?_labs+3)& (0+255),w,b
  2144   000A56  1162               	iorwf	(?_labs+2)& (0+255),w,b
  2145   000A58  1161               	iorwf	(?_labs+1)& (0+255),w,b
  2146   000A5A  E109               	bnz	u6940
  2147   000A5C  0E02               	movlw	2
  2148   000A5E  5D60               	subwf	?_labs& (0+255),w,b
  2149   000A60  A0D8               	btfss	status,0,c
  2150   000A62  EF35  F005         	goto	u6941
  2151   000A66  EF37  F005         	goto	u6940
  2152   000A6A                     u6941:
  2153   000A6A  EFF3  F004         	goto	l884
  2154   000A6E                     u6940:
  2155   000A6E                     
  2156                           ; BSR set to: 0
  2157   000A6E  C0A9  F079         	movff	efgtoa@ou,___flge@ff1
  2158   000A72  C0AA  F07A         	movff	efgtoa@ou+1,___flge@ff1+1
  2159   000A76  C0AB  F07B         	movff	efgtoa@ou+2,___flge@ff1+2
  2160   000A7A  C0AC  F07C         	movff	efgtoa@ou+3,___flge@ff1+3
  2161   000A7E  C0B8  F07D         	movff	efgtoa@g,___flge@ff2
  2162   000A82  C0B9  F07E         	movff	efgtoa@g+1,___flge@ff2+1
  2163   000A86  C0BA  F07F         	movff	efgtoa@g+2,___flge@ff2+2
  2164   000A8A  C0BB  F080         	movff	efgtoa@g+3,___flge@ff2+3
  2165   000A8E  EC19  F017         	call	___flge	;wreg free
  2166   000A92  0100               	movlb	0	; () banked
  2167   000A94  A0D8               	btfss	status,0,c
  2168   000A96  EF4F  F005         	goto	u6951
  2169   000A9A  EF51  F005         	goto	u6950
  2170   000A9E                     u6951:
  2171   000A9E  EFF3  F004         	goto	l884
  2172   000AA2                     u6950:
  2173   000AA2                     
  2174                           ; BSR set to: 0
  2175                           ;C:\Program Files\Microchip\xc8\v2.45\pic\sources\c99\common\doprnt.c: 664:   if ((labs(
      +                          (g).u-(u).u) <= 1)) {
  2176   000AA2  51BE               	movf	efgtoa@u& (0+255),w,b
  2177   000AA4  5DB8               	subwf	efgtoa@g& (0+255),w,b
  2178   000AA6  6F60               	movwf	labs@a& (0+255),b
  2179   000AA8  51BF               	movf	(efgtoa@u+1)& (0+255),w,b
  2180   000AAA  59B9               	subwfb	(efgtoa@g+1)& (0+255),w,b
  2181   000AAC  6F61               	movwf	(labs@a+1)& (0+255),b
  2182   000AAE  51C0               	movf	(efgtoa@u+2)& (0+255),w,b
  2183   000AB0  59BA               	subwfb	(efgtoa@g+2)& (0+255),w,b
  2184   000AB2  6F62               	movwf	(labs@a+2)& (0+255),b
  2185   000AB4  51C1               	movf	(efgtoa@u+3)& (0+255),w,b
  2186   000AB6  59BB               	subwfb	(efgtoa@g+3)& (0+255),w,b
  2187   000AB8  6F63               	movwf	(labs@a+3)& (0+255),b
  2188   000ABA  EC93  F01B         	call	_labs	;wreg free
  2189   000ABE  0100               	movlb	0	; () banked
  2190   000AC0  BF63               	btfsc	(?_labs+3)& (0+255),7,b
  2191   000AC2  EF70  F005         	goto	u6960
  2192   000AC6  5163               	movf	(?_labs+3)& (0+255),w,b
  2193   000AC8  1162               	iorwf	(?_labs+2)& (0+255),w,b
  2194   000ACA  1161               	iorwf	(?_labs+1)& (0+255),w,b
  2195   000ACC  E107               	bnz	u6961
  2196   000ACE  0E02               	movlw	2
  2197   000AD0  5D60               	subwf	?_labs& (0+255),w,b
  2198   000AD2  B0D8               	btfsc	status,0,c
  2199   000AD4  EF6E  F005         	goto	u6961
  2200   000AD8  EF70  F005         	goto	u6960
  2201   000ADC                     u6961:
  2202   000ADC  EFB9  F005         	goto	l6137
  2203   000AE0                     u6960:
  2204   000AE0                     l6127:
  2205                           
  2206                           ; BSR set to: 0
  2207                           ;C:\Program Files\Microchip\xc8\v2.45\pic\sources\c99\common\doprnt.c: 665:    g = u;
  2208   000AE0  C0BE  F0B8         	movff	efgtoa@u,efgtoa@g
  2209   000AE4  C0BF  F0B9         	movff	efgtoa@u+1,efgtoa@g+1
  2210   000AE8  C0C0  F0BA         	movff	efgtoa@u+2,efgtoa@g+2
  2211   000AEC  C0C1  F0BB         	movff	efgtoa@u+3,efgtoa@g+3
  2212                           
  2213                           ;C:\Program Files\Microchip\xc8\v2.45\pic\sources\c99\common\doprnt.c: 666:   }
  2214   000AF0  EFD3  F005         	goto	l882
  2215   000AF4                     l6129:
  2216                           
  2217                           ; BSR set to: 0
  2218                           ;C:\Program Files\Microchip\xc8\v2.45\pic\sources\c99\common\doprnt.c: 669:     u.f = u.
      +                          f/10.0;
  2219   000AF4  C0BE  F060         	movff	efgtoa@u,___fldiv@b
  2220   000AF8  C0BF  F061         	movff	efgtoa@u+1,___fldiv@b+1
  2221   000AFC  C0C0  F062         	movff	efgtoa@u+2,___fldiv@b+2
  2222   000B00  C0C1  F063         	movff	efgtoa@u+3,___fldiv@b+3
  2223   000B04  0E00               	movlw	0
  2224   000B06  6F64               	movwf	___fldiv@a& (0+255),b
  2225   000B08  0E00               	movlw	0
  2226   000B0A  6F65               	movwf	(___fldiv@a+1)& (0+255),b
  2227   000B0C  0E20               	movlw	32
  2228   000B0E  6F66               	movwf	(___fldiv@a+2)& (0+255),b
  2229   000B10  0E41               	movlw	65
  2230   000B12  6F67               	movwf	(___fldiv@a+3)& (0+255),b
  2231   000B14  EC93  F00F         	call	___fldiv	;wreg free
  2232   000B18  C060  F0BE         	movff	?___fldiv,efgtoa@u
  2233   000B1C  C061  F0BF         	movff	?___fldiv+1,efgtoa@u+1
  2234   000B20  C062  F0C0         	movff	?___fldiv+2,efgtoa@u+2
  2235   000B24  C063  F0C1         	movff	?___fldiv+3,efgtoa@u+3
  2236   000B28                     
  2237                           ;C:\Program Files\Microchip\xc8\v2.45\pic\sources\c99\common\doprnt.c: 670:     --e;
  2238   000B28  0100               	movlb	0	; () banked
  2239   000B2A  07A5               	decf	efgtoa@e& (0+255),f,b
  2240   000B2C  A0D8               	btfss	status,0,c
  2241   000B2E  07A6               	decf	(efgtoa@e+1)& (0+255),f,b
  2242   000B30                     
  2243                           ; BSR set to: 0
  2244                           ;C:\Program Files\Microchip\xc8\v2.45\pic\sources\c99\common\doprnt.c: 671:     if ((lab
      +                          s((g).u-(u).u) <= 1)) {
  2245   000B30  51BE               	movf	efgtoa@u& (0+255),w,b
  2246   000B32  5DB8               	subwf	efgtoa@g& (0+255),w,b
  2247   000B34  6F60               	movwf	labs@a& (0+255),b
  2248   000B36  51BF               	movf	(efgtoa@u+1)& (0+255),w,b
  2249   000B38  59B9               	subwfb	(efgtoa@g+1)& (0+255),w,b
  2250   000B3A  6F61               	movwf	(labs@a+1)& (0+255),b
  2251   000B3C  51C0               	movf	(efgtoa@u+2)& (0+255),w,b
  2252   000B3E  59BA               	subwfb	(efgtoa@g+2)& (0+255),w,b
  2253   000B40  6F62               	movwf	(labs@a+2)& (0+255),b
  2254   000B42  51C1               	movf	(efgtoa@u+3)& (0+255),w,b
  2255   000B44  59BB               	subwfb	(efgtoa@g+3)& (0+255),w,b
  2256   000B46  6F63               	movwf	(labs@a+3)& (0+255),b
  2257   000B48  EC93  F01B         	call	_labs	;wreg free
  2258   000B4C  0100               	movlb	0	; () banked
  2259   000B4E  BF63               	btfsc	(?_labs+3)& (0+255),7,b
  2260   000B50  EFB7  F005         	goto	u6970
  2261   000B54  5163               	movf	(?_labs+3)& (0+255),w,b
  2262   000B56  1162               	iorwf	(?_labs+2)& (0+255),w,b
  2263   000B58  1161               	iorwf	(?_labs+1)& (0+255),w,b
  2264   000B5A  E107               	bnz	u6971
  2265   000B5C  0E02               	movlw	2
  2266   000B5E  5D60               	subwf	?_labs& (0+255),w,b
  2267   000B60  B0D8               	btfsc	status,0,c
  2268   000B62  EFB5  F005         	goto	u6971
  2269   000B66  EFB7  F005         	goto	u6970
  2270   000B6A                     u6971:
  2271   000B6A  EFB9  F005         	goto	l6137
  2272   000B6E                     u6970:
  2273   000B6E  EF70  F005         	goto	l6127
  2274   000B72                     l6137:
  2275                           
  2276                           ; BSR set to: 0
  2277                           ;C:\Program Files\Microchip\xc8\v2.45\pic\sources\c99\common\doprnt.c: 668:    while (g.
      +                          f < u.f) {
  2278   000B72  C0B8  F079         	movff	efgtoa@g,___flge@ff1
  2279   000B76  C0B9  F07A         	movff	efgtoa@g+1,___flge@ff1+1
  2280   000B7A  C0BA  F07B         	movff	efgtoa@g+2,___flge@ff1+2
  2281   000B7E  C0BB  F07C         	movff	efgtoa@g+3,___flge@ff1+3
  2282   000B82  C0BE  F07D         	movff	efgtoa@u,___flge@ff2
  2283   000B86  C0BF  F07E         	movff	efgtoa@u+1,___flge@ff2+1
  2284   000B8A  C0C0  F07F         	movff	efgtoa@u+2,___flge@ff2+2
  2285   000B8E  C0C1  F080         	movff	efgtoa@u+3,___flge@ff2+3
  2286   000B92  EC19  F017         	call	___flge	;wreg free
  2287   000B96  0100               	movlb	0	; () banked
  2288   000B98  A0D8               	btfss	status,0,c
  2289   000B9A  EFD1  F005         	goto	u6981
  2290   000B9E  EFD3  F005         	goto	u6980
  2291   000BA2                     u6981:
  2292   000BA2  EF7A  F005         	goto	l6129
  2293   000BA6                     u6980:
  2294   000BA6                     l882:
  2295                           
  2296                           ; BSR set to: 0
  2297                           ;C:\Program Files\Microchip\xc8\v2.45\pic\sources\c99\common\doprnt.c: 683:  mode = c;
  2298   000BA6  C093  F09F         	movff	efgtoa@c,efgtoa@mode
  2299                           
  2300                           ;C:\Program Files\Microchip\xc8\v2.45\pic\sources\c99\common\doprnt.c: 685:     nmode = 
      +                          mode;
  2301   000BAA  C09F  F0A0         	movff	efgtoa@mode,efgtoa@nmode
  2302   000BAE                     
  2303                           ; BSR set to: 0
  2304                           ;C:\Program Files\Microchip\xc8\v2.45\pic\sources\c99\common\doprnt.c: 695:  {;C:\Progra
      +                          m Files\Microchip\xc8\v2.45\pic\sources\c99\common\doprnt.c: 696:         p = (prec < 0)
      +                           ? 6 : prec;
  2305   000BAE  BFE4               	btfsc	(_prec+1)& (0+255),7,b
  2306   000BB0  EFDC  F005         	goto	u6991
  2307   000BB4  EFDE  F005         	goto	u6990
  2308   000BB8                     u6991:
  2309   000BB8  EFE4  F005         	goto	l6143
  2310   000BBC                     u6990:
  2311   000BBC                     
  2312                           ; BSR set to: 0
  2313   000BBC  C0E3  F098         	movff	_prec,efgtoa@p
  2314   000BC0  C0E4  F099         	movff	_prec+1,efgtoa@p+1
  2315   000BC4  EFE8  F005         	goto	l6145
  2316   000BC8                     l6143:
  2317                           
  2318                           ; BSR set to: 0
  2319   000BC8  0E00               	movlw	0
  2320   000BCA  6F99               	movwf	(efgtoa@p+1)& (0+255),b
  2321   000BCC  0E06               	movlw	6
  2322   000BCE  6F98               	movwf	efgtoa@p& (0+255),b
  2323   000BD0                     l6145:
  2324                           
  2325                           ; BSR set to: 0
  2326                           ;C:\Program Files\Microchip\xc8\v2.45\pic\sources\c99\common\doprnt.c: 697:     };C:\Pro
      +                          gram Files\Microchip\xc8\v2.45\pic\sources\c99\common\doprnt.c: 711:     m = p;
  2327   000BD0  C098  F0A3         	movff	efgtoa@p,efgtoa@m
  2328   000BD4  C099  F0A4         	movff	efgtoa@p+1,efgtoa@m+1
  2329   000BD8                     
  2330                           ; BSR set to: 0
  2331                           ;C:\Program Files\Microchip\xc8\v2.45\pic\sources\c99\common\doprnt.c: 715:  {;C:\Progra
      +                          m Files\Microchip\xc8\v2.45\pic\sources\c99\common\doprnt.c: 716:         ++m;
  2332   000BD8  4BA3               	infsnz	efgtoa@m& (0+255),f,b
  2333   000BDA  2BA4               	incf	(efgtoa@m+1)& (0+255),f,b
  2334   000BDC                     
  2335                           ; BSR set to: 0
  2336                           ;C:\Program Files\Microchip\xc8\v2.45\pic\sources\c99\common\doprnt.c: 717:     };C:\Pro
      +                          gram Files\Microchip\xc8\v2.45\pic\sources\c99\common\doprnt.c: 721:     if (nmode == 'f
      +                          ') {
  2337   000BDC  0E66               	movlw	102
  2338   000BDE  19A0               	xorwf	efgtoa@nmode& (0+255),w,b
  2339   000BE0  A4D8               	btfss	status,2,c
  2340   000BE2  EFF5  F005         	goto	u7001
  2341   000BE6  EFF7  F005         	goto	u7000
  2342   000BEA                     u7001:
  2343   000BEA  EF17  F006         	goto	l6159
  2344   000BEE                     u7000:
  2345   000BEE                     
  2346                           ; BSR set to: 0
  2347                           ;C:\Program Files\Microchip\xc8\v2.45\pic\sources\c99\common\doprnt.c: 722:         if (
      +                          e < 0) {
  2348   000BEE  BFA6               	btfsc	(efgtoa@e+1)& (0+255),7,b
  2349   000BF0  EFFE  F005         	goto	u7010
  2350   000BF4  EFFC  F005         	goto	u7011
  2351   000BF8                     u7011:
  2352   000BF8  EF0A  F006         	goto	l6155
  2353   000BFC                     u7010:
  2354   000BFC                     
  2355                           ; BSR set to: 0
  2356                           ;C:\Program Files\Microchip\xc8\v2.45\pic\sources\c99\common\doprnt.c: 723:             
      +                          u.f = 1.0;
  2357   000BFC  0E00               	movlw	0
  2358   000BFE  6FBE               	movwf	efgtoa@u& (0+255),b
  2359   000C00  0E00               	movlw	0
  2360   000C02  6FBF               	movwf	(efgtoa@u+1)& (0+255),b
  2361   000C04  0E80               	movlw	128
  2362   000C06  6FC0               	movwf	(efgtoa@u+2)& (0+255),b
  2363   000C08  0E3F               	movlw	63
  2364   000C0A  6FC1               	movwf	(efgtoa@u+3)& (0+255),b
  2365                           
  2366                           ;C:\Program Files\Microchip\xc8\v2.45\pic\sources\c99\common\doprnt.c: 724:             
      +                          e = 0;
  2367   000C0C  0E00               	movlw	0
  2368   000C0E  6FA6               	movwf	(efgtoa@e+1)& (0+255),b
  2369   000C10  0E00               	movlw	0
  2370   000C12  6FA5               	movwf	efgtoa@e& (0+255),b
  2371   000C14                     l6155:
  2372                           
  2373                           ; BSR set to: 0
  2374                           ;C:\Program Files\Microchip\xc8\v2.45\pic\sources\c99\common\doprnt.c: 726:         if (
      +                          !(mode == 'g')) {
  2375   000C14  0E67               	movlw	103
  2376   000C16  199F               	xorwf	efgtoa@mode& (0+255),w,b
  2377   000C18  B4D8               	btfsc	status,2,c
  2378   000C1A  EF11  F006         	goto	u7021
  2379   000C1E  EF13  F006         	goto	u7020
  2380   000C22                     u7021:
  2381   000C22  EF17  F006         	goto	l6159
  2382   000C26                     u7020:
  2383   000C26                     
  2384                           ; BSR set to: 0
  2385                           ;C:\Program Files\Microchip\xc8\v2.45\pic\sources\c99\common\doprnt.c: 727:             
      +                          m += e;
  2386   000C26  51A5               	movf	efgtoa@e& (0+255),w,b
  2387   000C28  27A3               	addwf	efgtoa@m& (0+255),f,b
  2388   000C2A  51A6               	movf	(efgtoa@e+1)& (0+255),w,b
  2389   000C2C  23A4               	addwfc	(efgtoa@m+1)& (0+255),f,b
  2390   000C2E                     l6159:
  2391                           
  2392                           ; BSR set to: 0
  2393                           ;C:\Program Files\Microchip\xc8\v2.45\pic\sources\c99\common\doprnt.c: 733:     i = 0;
  2394   000C2E  0E00               	movlw	0
  2395   000C30  6FAE               	movwf	(efgtoa@i+1)& (0+255),b
  2396   000C32  0E00               	movlw	0
  2397   000C34  6FAD               	movwf	efgtoa@i& (0+255),b
  2398   000C36                     
  2399                           ; BSR set to: 0
  2400                           ;C:\Program Files\Microchip\xc8\v2.45\pic\sources\c99\common\doprnt.c: 734:     h = g.f;
  2401   000C36  C0B8  F0AF         	movff	efgtoa@g,efgtoa@h
  2402   000C3A  C0B9  F0B0         	movff	efgtoa@g+1,efgtoa@h+1
  2403   000C3E  C0BA  F0B1         	movff	efgtoa@g+2,efgtoa@h+2
  2404   000C42  C0BB  F0B2         	movff	efgtoa@g+3,efgtoa@h+3
  2405   000C46                     
  2406                           ; BSR set to: 0
  2407                           ;C:\Program Files\Microchip\xc8\v2.45\pic\sources\c99\common\doprnt.c: 735:     ou = u;
  2408   000C46  C0BE  F0A9         	movff	efgtoa@u,efgtoa@ou
  2409   000C4A  C0BF  F0AA         	movff	efgtoa@u+1,efgtoa@ou+1
  2410   000C4E  C0C0  F0AB         	movff	efgtoa@u+2,efgtoa@ou+2
  2411   000C52  C0C1  F0AC         	movff	efgtoa@u+3,efgtoa@ou+3
  2412                           
  2413                           ;C:\Program Files\Microchip\xc8\v2.45\pic\sources\c99\common\doprnt.c: 736:     while (i
      +                           < m) {
  2414   000C56  EFA9  F006         	goto	l6173
  2415   000C5A                     l6165:
  2416                           
  2417                           ; BSR set to: 0
  2418                           ;C:\Program Files\Microchip\xc8\v2.45\pic\sources\c99\common\doprnt.c: 737:         l = 
      +                          floorf(h/u.f);
  2419   000C5A  C0AF  F060         	movff	efgtoa@h,___fldiv@b
  2420   000C5E  C0B0  F061         	movff	efgtoa@h+1,___fldiv@b+1
  2421   000C62  C0B1  F062         	movff	efgtoa@h+2,___fldiv@b+2
  2422   000C66  C0B2  F063         	movff	efgtoa@h+3,___fldiv@b+3
  2423   000C6A  C0BE  F064         	movff	efgtoa@u,___fldiv@a
  2424   000C6E  C0BF  F065         	movff	efgtoa@u+1,___fldiv@a+1
  2425   000C72  C0C0  F066         	movff	efgtoa@u+2,___fldiv@a+2
  2426   000C76  C0C1  F067         	movff	efgtoa@u+3,___fldiv@a+3
  2427   000C7A  EC93  F00F         	call	___fldiv	;wreg free
  2428   000C7E  C060  F079         	movff	?___fldiv,floorf@x
  2429   000C82  C061  F07A         	movff	?___fldiv+1,floorf@x+1
  2430   000C86  C062  F07B         	movff	?___fldiv+2,floorf@x+2
  2431   000C8A  C063  F07C         	movff	?___fldiv+3,floorf@x+3
  2432   000C8E  ECB0  F014         	call	_floorf	;wreg free
  2433   000C92  C079  F0B3         	movff	?_floorf,efgtoa@l
  2434   000C96  C07A  F0B4         	movff	?_floorf+1,efgtoa@l+1
  2435   000C9A  C07B  F0B5         	movff	?_floorf+2,efgtoa@l+2
  2436   000C9E  C07C  F0B6         	movff	?_floorf+3,efgtoa@l+3
  2437                           
  2438                           ;C:\Program Files\Microchip\xc8\v2.45\pic\sources\c99\common\doprnt.c: 738:         d = 
      +                          (int)l;
  2439   000CA2  C0B3  F060         	movff	efgtoa@l,___fltol@f1
  2440   000CA6  C0B4  F061         	movff	efgtoa@l+1,___fltol@f1+1
  2441   000CAA  C0B5  F062         	movff	efgtoa@l+2,___fltol@f1+2
  2442   000CAE  C0B6  F063         	movff	efgtoa@l+3,___fltol@f1+3
  2443   000CB2  EC95  F016         	call	___fltol	;wreg free
  2444   000CB6  C060  F0A1         	movff	?___fltol,efgtoa@d
  2445   000CBA  C061  F0A2         	movff	?___fltol+1,efgtoa@d+1
  2446   000CBE                     
  2447                           ;C:\Program Files\Microchip\xc8\v2.45\pic\sources\c99\common\doprnt.c: 739:         h -=
      +                           l*u.f;
  2448   000CBE  C0AF  F079         	movff	efgtoa@h,___flsub@b
  2449   000CC2  C0B0  F07A         	movff	efgtoa@h+1,___flsub@b+1
  2450   000CC6  C0B1  F07B         	movff	efgtoa@h+2,___flsub@b+2
  2451   000CCA  C0B2  F07C         	movff	efgtoa@h+3,___flsub@b+3
  2452   000CCE  C0B3  F064         	movff	efgtoa@l,___flmul@a
  2453   000CD2  C0B4  F065         	movff	efgtoa@l+1,___flmul@a+1
  2454   000CD6  C0B5  F066         	movff	efgtoa@l+2,___flmul@a+2
  2455   000CDA  C0B6  F067         	movff	efgtoa@l+3,___flmul@a+3
  2456   000CDE  C0BE  F060         	movff	efgtoa@u,___flmul@b
  2457   000CE2  C0BF  F061         	movff	efgtoa@u+1,___flmul@b+1
  2458   000CE6  C0C0  F062         	movff	efgtoa@u+2,___flmul@b+2
  2459   000CEA  C0C1  F063         	movff	efgtoa@u+3,___flmul@b+3
  2460   000CEE  EC68  F00B         	call	___flmul	;wreg free
  2461   000CF2  C060  F07D         	movff	?___flmul,___flsub@a
  2462   000CF6  C061  F07E         	movff	?___flmul+1,___flsub@a+1
  2463   000CFA  C062  F07F         	movff	?___flmul+2,___flsub@a+2
  2464   000CFE  C063  F080         	movff	?___flmul+3,___flsub@a+3
  2465   000D02  EC31  F01C         	call	___flsub	;wreg free
  2466   000D06  C079  F0AF         	movff	?___flsub,efgtoa@h
  2467   000D0A  C07A  F0B0         	movff	?___flsub+1,efgtoa@h+1
  2468   000D0E  C07B  F0B1         	movff	?___flsub+2,efgtoa@h+2
  2469   000D12  C07C  F0B2         	movff	?___flsub+3,efgtoa@h+3
  2470   000D16                     
  2471                           ;C:\Program Files\Microchip\xc8\v2.45\pic\sources\c99\common\doprnt.c: 740:         u.f 
      +                          = u.f/10.0;
  2472   000D16  C0BE  F060         	movff	efgtoa@u,___fldiv@b
  2473   000D1A  C0BF  F061         	movff	efgtoa@u+1,___fldiv@b+1
  2474   000D1E  C0C0  F062         	movff	efgtoa@u+2,___fldiv@b+2
  2475   000D22  C0C1  F063         	movff	efgtoa@u+3,___fldiv@b+3
  2476   000D26  0E00               	movlw	0
  2477   000D28  0100               	movlb	0	; () banked
  2478   000D2A  6F64               	movwf	___fldiv@a& (0+255),b
  2479   000D2C  0E00               	movlw	0
  2480   000D2E  6F65               	movwf	(___fldiv@a+1)& (0+255),b
  2481   000D30  0E20               	movlw	32
  2482   000D32  6F66               	movwf	(___fldiv@a+2)& (0+255),b
  2483   000D34  0E41               	movlw	65
  2484   000D36  6F67               	movwf	(___fldiv@a+3)& (0+255),b
  2485   000D38  EC93  F00F         	call	___fldiv	;wreg free
  2486   000D3C  C060  F0BE         	movff	?___fldiv,efgtoa@u
  2487   000D40  C061  F0BF         	movff	?___fldiv+1,efgtoa@u+1
  2488   000D44  C062  F0C0         	movff	?___fldiv+2,efgtoa@u+2
  2489   000D48  C063  F0C1         	movff	?___fldiv+3,efgtoa@u+3
  2490   000D4C                     
  2491                           ;C:\Program Files\Microchip\xc8\v2.45\pic\sources\c99\common\doprnt.c: 741:         ++i;
  2492   000D4C  0100               	movlb	0	; () banked
  2493   000D4E  4BAD               	infsnz	efgtoa@i& (0+255),f,b
  2494   000D50  2BAE               	incf	(efgtoa@i+1)& (0+255),f,b
  2495   000D52                     l6173:
  2496                           
  2497                           ; BSR set to: 0
  2498                           ;C:\Program Files\Microchip\xc8\v2.45\pic\sources\c99\common\doprnt.c: 736:     while (i
      +                           < m) {
  2499   000D52  51A3               	movf	efgtoa@m& (0+255),w,b
  2500   000D54  5DAD               	subwf	efgtoa@i& (0+255),w,b
  2501   000D56  51AE               	movf	(efgtoa@i+1)& (0+255),w,b
  2502   000D58  0A80               	xorlw	128
  2503   000D5A  6F94               	movwf	??_efgtoa& (0+255),b
  2504   000D5C  51A4               	movf	(efgtoa@m+1)& (0+255),w,b
  2505   000D5E  0A80               	xorlw	128
  2506   000D60  5994               	subwfb	??_efgtoa& (0+255),w,b
  2507   000D62  A0D8               	btfss	status,0,c
  2508   000D64  EFB6  F006         	goto	u7031
  2509   000D68  EFB8  F006         	goto	u7030
  2510   000D6C                     u7031:
  2511   000D6C  EF2D  F006         	goto	l6165
  2512   000D70                     u7030:
  2513   000D70                     
  2514                           ; BSR set to: 0
  2515                           ;C:\Program Files\Microchip\xc8\v2.45\pic\sources\c99\common\doprnt.c: 745:     l = u.f*
      +                          5.0;
  2516   000D70  C0BE  F060         	movff	efgtoa@u,___flmul@b
  2517   000D74  C0BF  F061         	movff	efgtoa@u+1,___flmul@b+1
  2518   000D78  C0C0  F062         	movff	efgtoa@u+2,___flmul@b+2
  2519   000D7C  C0C1  F063         	movff	efgtoa@u+3,___flmul@b+3
  2520   000D80  0E00               	movlw	0
  2521   000D82  6F64               	movwf	___flmul@a& (0+255),b
  2522   000D84  0E00               	movlw	0
  2523   000D86  6F65               	movwf	(___flmul@a+1)& (0+255),b
  2524   000D88  0EA0               	movlw	160
  2525   000D8A  6F66               	movwf	(___flmul@a+2)& (0+255),b
  2526   000D8C  0E40               	movlw	64
  2527   000D8E  6F67               	movwf	(___flmul@a+3)& (0+255),b
  2528   000D90  EC68  F00B         	call	___flmul	;wreg free
  2529   000D94  C060  F0B3         	movff	?___flmul,efgtoa@l
  2530   000D98  C061  F0B4         	movff	?___flmul+1,efgtoa@l+1
  2531   000D9C  C062  F0B5         	movff	?___flmul+2,efgtoa@l+2
  2532   000DA0  C063  F0B6         	movff	?___flmul+3,efgtoa@l+3
  2533   000DA4                     
  2534                           ;C:\Program Files\Microchip\xc8\v2.45\pic\sources\c99\common\doprnt.c: 746:     if (h < 
      +                          l) {
  2535   000DA4  C0AF  F079         	movff	efgtoa@h,___flge@ff1
  2536   000DA8  C0B0  F07A         	movff	efgtoa@h+1,___flge@ff1+1
  2537   000DAC  C0B1  F07B         	movff	efgtoa@h+2,___flge@ff1+2
  2538   000DB0  C0B2  F07C         	movff	efgtoa@h+3,___flge@ff1+3
  2539   000DB4  C0B3  F07D         	movff	efgtoa@l,___flge@ff2
  2540   000DB8  C0B4  F07E         	movff	efgtoa@l+1,___flge@ff2+1
  2541   000DBC  C0B5  F07F         	movff	efgtoa@l+2,___flge@ff2+2
  2542   000DC0  C0B6  F080         	movff	efgtoa@l+3,___flge@ff2+3
  2543   000DC4  EC19  F017         	call	___flge	;wreg free
  2544   000DC8  0100               	movlb	0	; () banked
  2545   000DCA  B0D8               	btfsc	status,0,c
  2546   000DCC  EFEA  F006         	goto	u7041
  2547   000DD0  EFEC  F006         	goto	u7040
  2548   000DD4                     u7041:
  2549   000DD4  EFF6  F006         	goto	l6181
  2550   000DD8                     u7040:
  2551   000DD8                     
  2552                           ; BSR set to: 0
  2553                           ;C:\Program Files\Microchip\xc8\v2.45\pic\sources\c99\common\doprnt.c: 747:         l = 
      +                          0.0;
  2554   000DD8  0E00               	movlw	0
  2555   000DDA  6FB3               	movwf	efgtoa@l& (0+255),b
  2556   000DDC  0E00               	movlw	0
  2557   000DDE  6FB4               	movwf	(efgtoa@l+1)& (0+255),b
  2558   000DE0  0E00               	movlw	0
  2559   000DE2  6FB5               	movwf	(efgtoa@l+2)& (0+255),b
  2560   000DE4  0E00               	movlw	0
  2561   000DE6  6FB6               	movwf	(efgtoa@l+3)& (0+255),b
  2562                           
  2563                           ;C:\Program Files\Microchip\xc8\v2.45\pic\sources\c99\common\doprnt.c: 748:     } else {
  2564   000DE8  EF1F  F007         	goto	l6187
  2565   000DEC                     l6181:
  2566                           
  2567                           ; BSR set to: 0
  2568                           ;C:\Program Files\Microchip\xc8\v2.45\pic\sources\c99\common\doprnt.c: 750:         if (
      +                          (h == l) && !(d % 2)) {
  2569   000DEC  C0AF  F060         	movff	efgtoa@h,___fleq@ff1
  2570   000DF0  C0B0  F061         	movff	efgtoa@h+1,___fleq@ff1+1
  2571   000DF4  C0B1  F062         	movff	efgtoa@h+2,___fleq@ff1+2
  2572   000DF8  C0B2  F063         	movff	efgtoa@h+3,___fleq@ff1+3
  2573   000DFC  C0B3  F064         	movff	efgtoa@l,___fleq@ff2
  2574   000E00  C0B4  F065         	movff	efgtoa@l+1,___fleq@ff2+1
  2575   000E04  C0B5  F066         	movff	efgtoa@l+2,___fleq@ff2+2
  2576   000E08  C0B6  F067         	movff	efgtoa@l+3,___fleq@ff2+3
  2577   000E0C  ECCF  F019         	call	___fleq	;wreg free
  2578   000E10  0100               	movlb	0	; () banked
  2579   000E12  A0D8               	btfss	status,0,c
  2580   000E14  EF0E  F007         	goto	u7051
  2581   000E18  EF10  F007         	goto	u7050
  2582   000E1C                     u7051:
  2583   000E1C  EF1F  F007         	goto	l6187
  2584   000E20                     u7050:
  2585   000E20                     
  2586                           ; BSR set to: 0
  2587   000E20  B1A1               	btfsc	efgtoa@d& (0+255),0,b
  2588   000E22  EF15  F007         	goto	u7061
  2589   000E26  EF17  F007         	goto	u7060
  2590   000E2A                     u7061:
  2591   000E2A  EF1F  F007         	goto	l6187
  2592   000E2E                     u7060:
  2593   000E2E                     
  2594                           ; BSR set to: 0
  2595                           ;C:\Program Files\Microchip\xc8\v2.45\pic\sources\c99\common\doprnt.c: 751:             
      +                          l = 0.0;
  2596   000E2E  0E00               	movlw	0
  2597   000E30  6FB3               	movwf	efgtoa@l& (0+255),b
  2598   000E32  0E00               	movlw	0
  2599   000E34  6FB4               	movwf	(efgtoa@l+1)& (0+255),b
  2600   000E36  0E00               	movlw	0
  2601   000E38  6FB5               	movwf	(efgtoa@l+2)& (0+255),b
  2602   000E3A  0E00               	movlw	0
  2603   000E3C  6FB6               	movwf	(efgtoa@l+3)& (0+255),b
  2604   000E3E                     l6187:
  2605                           
  2606                           ; BSR set to: 0
  2607                           ;C:\Program Files\Microchip\xc8\v2.45\pic\sources\c99\common\doprnt.c: 756:     h = g.f 
      +                          + l;
  2608   000E3E  C0B8  F060         	movff	efgtoa@g,___fladd@b
  2609   000E42  C0B9  F061         	movff	efgtoa@g+1,___fladd@b+1
  2610   000E46  C0BA  F062         	movff	efgtoa@g+2,___fladd@b+2
  2611   000E4A  C0BB  F063         	movff	efgtoa@g+3,___fladd@b+3
  2612   000E4E  C0B3  F064         	movff	efgtoa@l,___fladd@a
  2613   000E52  C0B4  F065         	movff	efgtoa@l+1,___fladd@a+1
  2614   000E56  C0B5  F066         	movff	efgtoa@l+2,___fladd@a+2
  2615   000E5A  C0B6  F067         	movff	efgtoa@l+3,___fladd@a+3
  2616   000E5E  EC07  F009         	call	___fladd	;wreg free
  2617   000E62  C060  F0AF         	movff	?___fladd,efgtoa@h
  2618   000E66  C061  F0B0         	movff	?___fladd+1,efgtoa@h+1
  2619   000E6A  C062  F0B1         	movff	?___fladd+2,efgtoa@h+2
  2620   000E6E  C063  F0B2         	movff	?___fladd+3,efgtoa@h+3
  2621   000E72                     
  2622                           ;C:\Program Files\Microchip\xc8\v2.45\pic\sources\c99\common\doprnt.c: 758:  if (h >= (o
      +                          u.f*10.0)) {
  2623   000E72  C0AF  F079         	movff	efgtoa@h,___flge@ff1
  2624   000E76  C0B0  F07A         	movff	efgtoa@h+1,___flge@ff1+1
  2625   000E7A  C0B1  F07B         	movff	efgtoa@h+2,___flge@ff1+2
  2626   000E7E  C0B2  F07C         	movff	efgtoa@h+3,___flge@ff1+3
  2627   000E82  0E00               	movlw	0
  2628   000E84  0100               	movlb	0	; () banked
  2629   000E86  6F64               	movwf	___flmul@a& (0+255),b
  2630   000E88  0E00               	movlw	0
  2631   000E8A  6F65               	movwf	(___flmul@a+1)& (0+255),b
  2632   000E8C  0E20               	movlw	32
  2633   000E8E  6F66               	movwf	(___flmul@a+2)& (0+255),b
  2634   000E90  0E41               	movlw	65
  2635   000E92  6F67               	movwf	(___flmul@a+3)& (0+255),b
  2636   000E94  C0A9  F060         	movff	efgtoa@ou,___flmul@b
  2637   000E98  C0AA  F061         	movff	efgtoa@ou+1,___flmul@b+1
  2638   000E9C  C0AB  F062         	movff	efgtoa@ou+2,___flmul@b+2
  2639   000EA0  C0AC  F063         	movff	efgtoa@ou+3,___flmul@b+3
  2640   000EA4  EC68  F00B         	call	___flmul	;wreg free
  2641   000EA8  C060  F07D         	movff	?___flmul,___flge@ff2
  2642   000EAC  C061  F07E         	movff	?___flmul+1,___flge@ff2+1
  2643   000EB0  C062  F07F         	movff	?___flmul+2,___flge@ff2+2
  2644   000EB4  C063  F080         	movff	?___flmul+3,___flge@ff2+3
  2645   000EB8  EC19  F017         	call	___flge	;wreg free
  2646   000EBC  0100               	movlb	0	; () banked
  2647   000EBE  A0D8               	btfss	status,0,c
  2648   000EC0  EF64  F007         	goto	u7071
  2649   000EC4  EF66  F007         	goto	u7070
  2650   000EC8                     u7071:
  2651   000EC8  EF8E  F007         	goto	l6199
  2652   000ECC                     u7070:
  2653   000ECC                     
  2654                           ; BSR set to: 0
  2655                           ;C:\Program Files\Microchip\xc8\v2.45\pic\sources\c99\common\doprnt.c: 759:   e++;
  2656   000ECC  4BA5               	infsnz	efgtoa@e& (0+255),f,b
  2657   000ECE  2BA6               	incf	(efgtoa@e+1)& (0+255),f,b
  2658   000ED0                     
  2659                           ; BSR set to: 0
  2660                           ;C:\Program Files\Microchip\xc8\v2.45\pic\sources\c99\common\doprnt.c: 760:   ou.f *= 10
      +                          .0;
  2661   000ED0  C0A9  F060         	movff	efgtoa@ou,___flmul@b
  2662   000ED4  C0AA  F061         	movff	efgtoa@ou+1,___flmul@b+1
  2663   000ED8  C0AB  F062         	movff	efgtoa@ou+2,___flmul@b+2
  2664   000EDC  C0AC  F063         	movff	efgtoa@ou+3,___flmul@b+3
  2665   000EE0  0E00               	movlw	0
  2666   000EE2  6F64               	movwf	___flmul@a& (0+255),b
  2667   000EE4  0E00               	movlw	0
  2668   000EE6  6F65               	movwf	(___flmul@a+1)& (0+255),b
  2669   000EE8  0E20               	movlw	32
  2670   000EEA  6F66               	movwf	(___flmul@a+2)& (0+255),b
  2671   000EEC  0E41               	movlw	65
  2672   000EEE  6F67               	movwf	(___flmul@a+3)& (0+255),b
  2673   000EF0  EC68  F00B         	call	___flmul	;wreg free
  2674   000EF4  C060  F0A9         	movff	?___flmul,efgtoa@ou
  2675   000EF8  C061  F0AA         	movff	?___flmul+1,efgtoa@ou+1
  2676   000EFC  C062  F0AB         	movff	?___flmul+2,efgtoa@ou+2
  2677   000F00  C063  F0AC         	movff	?___flmul+3,efgtoa@ou+3
  2678   000F04                     
  2679                           ;C:\Program Files\Microchip\xc8\v2.45\pic\sources\c99\common\doprnt.c: 762:   if (nmode 
      +                          == 'f') {
  2680   000F04  0E66               	movlw	102
  2681   000F06  0100               	movlb	0	; () banked
  2682   000F08  19A0               	xorwf	efgtoa@nmode& (0+255),w,b
  2683   000F0A  A4D8               	btfss	status,2,c
  2684   000F0C  EF8A  F007         	goto	u7081
  2685   000F10  EF8C  F007         	goto	u7080
  2686   000F14                     u7081:
  2687   000F14  EF8E  F007         	goto	l6199
  2688   000F18                     u7080:
  2689   000F18                     
  2690                           ; BSR set to: 0
  2691                           ;C:\Program Files\Microchip\xc8\v2.45\pic\sources\c99\common\doprnt.c: 764:    m++;
  2692   000F18  4BA3               	infsnz	efgtoa@m& (0+255),f,b
  2693   000F1A  2BA4               	incf	(efgtoa@m+1)& (0+255),f,b
  2694   000F1C                     l6199:
  2695                           
  2696                           ; BSR set to: 0
  2697                           ;C:\Program Files\Microchip\xc8\v2.45\pic\sources\c99\common\doprnt.c: 770:     u = ou;
  2698   000F1C  C0A9  F0BE         	movff	efgtoa@ou,efgtoa@u
  2699   000F20  C0AA  F0BF         	movff	efgtoa@ou+1,efgtoa@u+1
  2700   000F24  C0AB  F0C0         	movff	efgtoa@ou+2,efgtoa@u+2
  2701   000F28  C0AC  F0C1         	movff	efgtoa@ou+3,efgtoa@u+3
  2702   000F2C                     
  2703                           ; BSR set to: 0
  2704                           ;C:\Program Files\Microchip\xc8\v2.45\pic\sources\c99\common\doprnt.c: 774:  ne = e;
  2705   000F2C  C0A5  F096         	movff	efgtoa@e,efgtoa@ne
  2706   000F30  C0A6  F097         	movff	efgtoa@e+1,efgtoa@ne+1
  2707   000F34                     
  2708                           ; BSR set to: 0
  2709                           ;C:\Program Files\Microchip\xc8\v2.45\pic\sources\c99\common\doprnt.c: 776:     pp = 0;
  2710   000F34  0E00               	movlw	0
  2711   000F36  6F9E               	movwf	efgtoa@pp& (0+255),b
  2712   000F38                     
  2713                           ; BSR set to: 0
  2714                           ;C:\Program Files\Microchip\xc8\v2.45\pic\sources\c99\common\doprnt.c: 777:     t = 0;
  2715   000F38  0E00               	movlw	0
  2716   000F3A  6F9B               	movwf	(efgtoa@t+1)& (0+255),b
  2717   000F3C  0E00               	movlw	0
  2718   000F3E  6F9A               	movwf	efgtoa@t& (0+255),b
  2719   000F40                     
  2720                           ; BSR set to: 0
  2721                           ;C:\Program Files\Microchip\xc8\v2.45\pic\sources\c99\common\doprnt.c: 778:     i = 0;
  2722   000F40  0E00               	movlw	0
  2723   000F42  6FAE               	movwf	(efgtoa@i+1)& (0+255),b
  2724   000F44  0E00               	movlw	0
  2725   000F46  6FAD               	movwf	efgtoa@i& (0+255),b
  2726                           
  2727                           ;C:\Program Files\Microchip\xc8\v2.45\pic\sources\c99\common\doprnt.c: 779:     while ((
      +                          i < m) && (n < (80 - 5))) {
  2728   000F48  EF8C  F008         	goto	l6249
  2729   000F4C                     l6209:
  2730                           
  2731                           ; BSR set to: 0
  2732                           ;C:\Program Files\Microchip\xc8\v2.45\pic\sources\c99\common\doprnt.c: 780:         l = 
      +                          floorf(h/u.f);
  2733   000F4C  C0AF  F060         	movff	efgtoa@h,___fldiv@b
  2734   000F50  C0B0  F061         	movff	efgtoa@h+1,___fldiv@b+1
  2735   000F54  C0B1  F062         	movff	efgtoa@h+2,___fldiv@b+2
  2736   000F58  C0B2  F063         	movff	efgtoa@h+3,___fldiv@b+3
  2737   000F5C  C0BE  F064         	movff	efgtoa@u,___fldiv@a
  2738   000F60  C0BF  F065         	movff	efgtoa@u+1,___fldiv@a+1
  2739   000F64  C0C0  F066         	movff	efgtoa@u+2,___fldiv@a+2
  2740   000F68  C0C1  F067         	movff	efgtoa@u+3,___fldiv@a+3
  2741   000F6C  EC93  F00F         	call	___fldiv	;wreg free
  2742   000F70  C060  F079         	movff	?___fldiv,floorf@x
  2743   000F74  C061  F07A         	movff	?___fldiv+1,floorf@x+1
  2744   000F78  C062  F07B         	movff	?___fldiv+2,floorf@x+2
  2745   000F7C  C063  F07C         	movff	?___fldiv+3,floorf@x+3
  2746   000F80  ECB0  F014         	call	_floorf	;wreg free
  2747   000F84  C079  F0B3         	movff	?_floorf,efgtoa@l
  2748   000F88  C07A  F0B4         	movff	?_floorf+1,efgtoa@l+1
  2749   000F8C  C07B  F0B5         	movff	?_floorf+2,efgtoa@l+2
  2750   000F90  C07C  F0B6         	movff	?_floorf+3,efgtoa@l+3
  2751                           
  2752                           ;C:\Program Files\Microchip\xc8\v2.45\pic\sources\c99\common\doprnt.c: 781:         d = 
      +                          (int)l > 9 ? 9 : (int)l;
  2753   000F94  C0B3  F060         	movff	efgtoa@l,___fltol@f1
  2754   000F98  C0B4  F061         	movff	efgtoa@l+1,___fltol@f1+1
  2755   000F9C  C0B5  F062         	movff	efgtoa@l+2,___fltol@f1+2
  2756   000FA0  C0B6  F063         	movff	efgtoa@l+3,___fltol@f1+3
  2757   000FA4  EC95  F016         	call	___fltol	;wreg free
  2758   000FA8  0100               	movlb	0	; () banked
  2759   000FAA  BF61               	btfsc	(?___fltol+1)& (0+255),7,b
  2760   000FAC  EFE3  F007         	goto	u7090
  2761   000FB0  5161               	movf	(?___fltol+1)& (0+255),w,b
  2762   000FB2  E107               	bnz	u7091
  2763   000FB4  0E0A               	movlw	10
  2764   000FB6  5D60               	subwf	?___fltol& (0+255),w,b
  2765   000FB8  B0D8               	btfsc	status,0,c
  2766   000FBA  EFE1  F007         	goto	u7091
  2767   000FBE  EFE3  F007         	goto	u7090
  2768   000FC2                     u7091:
  2769   000FC2  EFF3  F007         	goto	l6213
  2770   000FC6                     u7090:
  2771   000FC6                     
  2772                           ; BSR set to: 0
  2773   000FC6  C0B3  F060         	movff	efgtoa@l,___fltol@f1
  2774   000FCA  C0B4  F061         	movff	efgtoa@l+1,___fltol@f1+1
  2775   000FCE  C0B5  F062         	movff	efgtoa@l+2,___fltol@f1+2
  2776   000FD2  C0B6  F063         	movff	efgtoa@l+3,___fltol@f1+3
  2777   000FD6  EC95  F016         	call	___fltol	;wreg free
  2778   000FDA  C060  F0A1         	movff	?___fltol,efgtoa@d
  2779   000FDE  C061  F0A2         	movff	?___fltol+1,efgtoa@d+1
  2780   000FE2  EFF7  F007         	goto	l912
  2781   000FE6                     l6213:
  2782                           
  2783                           ; BSR set to: 0
  2784   000FE6  0E00               	movlw	0
  2785   000FE8  6FA2               	movwf	(efgtoa@d+1)& (0+255),b
  2786   000FEA  0E09               	movlw	9
  2787   000FEC  6FA1               	movwf	efgtoa@d& (0+255),b
  2788   000FEE                     l912:
  2789                           
  2790                           ;C:\Program Files\Microchip\xc8\v2.45\pic\sources\c99\common\doprnt.c: 792:   {;C:\Progr
      +                          am Files\Microchip\xc8\v2.45\pic\sources\c99\common\doprnt.c: 793:             if (!pp &
      +                          & (ne < 0)) {
  2791   000FEE  0100               	movlb	0	; () banked
  2792   000FF0  519E               	movf	efgtoa@pp& (0+255),w,b
  2793   000FF2  A4D8               	btfss	status,2,c
  2794   000FF4  EFFE  F007         	goto	u7101
  2795   000FF8  EF00  F008         	goto	u7100
  2796   000FFC                     u7101:
  2797   000FFC  EF28  F008         	goto	l6233
  2798   001000                     u7100:
  2799   001000                     
  2800                           ; BSR set to: 0
  2801   001000  BF97               	btfsc	(efgtoa@ne+1)& (0+255),7,b
  2802   001002  EF07  F008         	goto	u7110
  2803   001006  EF05  F008         	goto	u7111
  2804   00100A                     u7111:
  2805   00100A  EF28  F008         	goto	l6233
  2806   00100E                     u7110:
  2807   00100E                     
  2808                           ; BSR set to: 0
  2809                           ;C:\Program Files\Microchip\xc8\v2.45\pic\sources\c99\common\doprnt.c: 794:             
      +                              dbuf[n++] = '.';
  2810   00100E  0E00               	movlw	low _dbuf
  2811   001010  25BC               	addwf	efgtoa@n& (0+255),w,b
  2812   001012  6ED9               	movwf	fsr2l,c
  2813   001014  0E01               	movlw	high _dbuf
  2814   001016  21BD               	addwfc	(efgtoa@n+1)& (0+255),w,b
  2815   001018  6EDA               	movwf	fsr2h,c
  2816   00101A  0E2E               	movlw	46
  2817   00101C  6EDF               	movwf	indf2,c
  2818   00101E                     
  2819                           ; BSR set to: 0
  2820   00101E  4BBC               	infsnz	efgtoa@n& (0+255),f,b
  2821   001020  2BBD               	incf	(efgtoa@n+1)& (0+255),f,b
  2822   001022                     
  2823                           ; BSR set to: 0
  2824                           ;C:\Program Files\Microchip\xc8\v2.45\pic\sources\c99\common\doprnt.c: 795:             
      +                              --w;
  2825   001022  07A7               	decf	efgtoa@w& (0+255),f,b
  2826   001024  A0D8               	btfss	status,0,c
  2827   001026  07A8               	decf	(efgtoa@w+1)& (0+255),f,b
  2828   001028                     
  2829                           ; BSR set to: 0
  2830                           ;C:\Program Files\Microchip\xc8\v2.45\pic\sources\c99\common\doprnt.c: 796:             
      +                              pp = 1;
  2831   001028  0E01               	movlw	1
  2832   00102A  6F9E               	movwf	efgtoa@pp& (0+255),b
  2833   00102C  EF28  F008         	goto	l6233
  2834   001030                     l6225:
  2835                           
  2836                           ; BSR set to: 0
  2837                           ;C:\Program Files\Microchip\xc8\v2.45\pic\sources\c99\common\doprnt.c: 799:             
      +                              dbuf[n++] = '0';
  2838   001030  0E00               	movlw	low _dbuf
  2839   001032  25BC               	addwf	efgtoa@n& (0+255),w,b
  2840   001034  6ED9               	movwf	fsr2l,c
  2841   001036  0E01               	movlw	high _dbuf
  2842   001038  21BD               	addwfc	(efgtoa@n+1)& (0+255),w,b
  2843   00103A  6EDA               	movwf	fsr2h,c
  2844   00103C  0E30               	movlw	48
  2845   00103E  6EDF               	movwf	indf2,c
  2846   001040                     
  2847                           ; BSR set to: 0
  2848   001040  4BBC               	infsnz	efgtoa@n& (0+255),f,b
  2849   001042  2BBD               	incf	(efgtoa@n+1)& (0+255),f,b
  2850   001044                     
  2851                           ; BSR set to: 0
  2852                           ;C:\Program Files\Microchip\xc8\v2.45\pic\sources\c99\common\doprnt.c: 800:             
      +                              --w;
  2853   001044  07A7               	decf	efgtoa@w& (0+255),f,b
  2854   001046  A0D8               	btfss	status,0,c
  2855   001048  07A8               	decf	(efgtoa@w+1)& (0+255),f,b
  2856   00104A                     
  2857                           ; BSR set to: 0
  2858                           ;C:\Program Files\Microchip\xc8\v2.45\pic\sources\c99\common\doprnt.c: 801:             
      +                              --t;
  2859   00104A  079A               	decf	efgtoa@t& (0+255),f,b
  2860   00104C  A0D8               	btfss	status,0,c
  2861   00104E  079B               	decf	(efgtoa@t+1)& (0+255),f,b
  2862   001050                     l6233:
  2863                           
  2864                           ; BSR set to: 0
  2865                           ;C:\Program Files\Microchip\xc8\v2.45\pic\sources\c99\common\doprnt.c: 798:             
      +                          while (t) {
  2866   001050  519A               	movf	efgtoa@t& (0+255),w,b
  2867   001052  119B               	iorwf	(efgtoa@t+1)& (0+255),w,b
  2868   001054  A4D8               	btfss	status,2,c
  2869   001056  EF2F  F008         	goto	u7121
  2870   00105A  EF31  F008         	goto	u7120
  2871   00105E                     u7121:
  2872   00105E  EF18  F008         	goto	l6225
  2873   001062                     u7120:
  2874   001062                     
  2875                           ; BSR set to: 0
  2876                           ;C:\Program Files\Microchip\xc8\v2.45\pic\sources\c99\common\doprnt.c: 803:             
      +                          dbuf[n++] = (char)((int)'0' + d);
  2877   001062  0E00               	movlw	low _dbuf
  2878   001064  25BC               	addwf	efgtoa@n& (0+255),w,b
  2879   001066  6ED9               	movwf	fsr2l,c
  2880   001068  0E01               	movlw	high _dbuf
  2881   00106A  21BD               	addwfc	(efgtoa@n+1)& (0+255),w,b
  2882   00106C  6EDA               	movwf	fsr2h,c
  2883   00106E  51A1               	movf	efgtoa@d& (0+255),w,b
  2884   001070  0F30               	addlw	48
  2885   001072  6EDF               	movwf	indf2,c
  2886   001074                     
  2887                           ; BSR set to: 0
  2888   001074  4BBC               	infsnz	efgtoa@n& (0+255),f,b
  2889   001076  2BBD               	incf	(efgtoa@n+1)& (0+255),f,b
  2890   001078                     
  2891                           ; BSR set to: 0
  2892                           ;C:\Program Files\Microchip\xc8\v2.45\pic\sources\c99\common\doprnt.c: 804:             
      +                          --w;
  2893   001078  07A7               	decf	efgtoa@w& (0+255),f,b
  2894   00107A  A0D8               	btfss	status,0,c
  2895   00107C  07A8               	decf	(efgtoa@w+1)& (0+255),f,b
  2896   00107E                     
  2897                           ; BSR set to: 0
  2898                           ;C:\Program Files\Microchip\xc8\v2.45\pic\sources\c99\common\doprnt.c: 805:         };C:
      +                          \Program Files\Microchip\xc8\v2.45\pic\sources\c99\common\doprnt.c: 806:         h -= l*
      +                          u.f;
  2899   00107E  C0AF  F079         	movff	efgtoa@h,___flsub@b
  2900   001082  C0B0  F07A         	movff	efgtoa@h+1,___flsub@b+1
  2901   001086  C0B1  F07B         	movff	efgtoa@h+2,___flsub@b+2
  2902   00108A  C0B2  F07C         	movff	efgtoa@h+3,___flsub@b+3
  2903   00108E  C0B3  F064         	movff	efgtoa@l,___flmul@a
  2904   001092  C0B4  F065         	movff	efgtoa@l+1,___flmul@a+1
  2905   001096  C0B5  F066         	movff	efgtoa@l+2,___flmul@a+2
  2906   00109A  C0B6  F067         	movff	efgtoa@l+3,___flmul@a+3
  2907   00109E  C0BE  F060         	movff	efgtoa@u,___flmul@b
  2908   0010A2  C0BF  F061         	movff	efgtoa@u+1,___flmul@b+1
  2909   0010A6  C0C0  F062         	movff	efgtoa@u+2,___flmul@b+2
  2910   0010AA  C0C1  F063         	movff	efgtoa@u+3,___flmul@b+3
  2911   0010AE  EC68  F00B         	call	___flmul	;wreg free
  2912   0010B2  C060  F07D         	movff	?___flmul,___flsub@a
  2913   0010B6  C061  F07E         	movff	?___flmul+1,___flsub@a+1
  2914   0010BA  C062  F07F         	movff	?___flmul+2,___flsub@a+2
  2915   0010BE  C063  F080         	movff	?___flmul+3,___flsub@a+3
  2916   0010C2  EC31  F01C         	call	___flsub	;wreg free
  2917   0010C6  C079  F0AF         	movff	?___flsub,efgtoa@h
  2918   0010CA  C07A  F0B0         	movff	?___flsub+1,efgtoa@h+1
  2919   0010CE  C07B  F0B1         	movff	?___flsub+2,efgtoa@h+2
  2920   0010D2  C07C  F0B2         	movff	?___flsub+3,efgtoa@h+3
  2921   0010D6                     
  2922                           ;C:\Program Files\Microchip\xc8\v2.45\pic\sources\c99\common\doprnt.c: 807:         u.f 
      +                          = u.f/10.0;
  2923   0010D6  C0BE  F060         	movff	efgtoa@u,___fldiv@b
  2924   0010DA  C0BF  F061         	movff	efgtoa@u+1,___fldiv@b+1
  2925   0010DE  C0C0  F062         	movff	efgtoa@u+2,___fldiv@b+2
  2926   0010E2  C0C1  F063         	movff	efgtoa@u+3,___fldiv@b+3
  2927   0010E6  0E00               	movlw	0
  2928   0010E8  0100               	movlb	0	; () banked
  2929   0010EA  6F64               	movwf	___fldiv@a& (0+255),b
  2930   0010EC  0E00               	movlw	0
  2931   0010EE  6F65               	movwf	(___fldiv@a+1)& (0+255),b
  2932   0010F0  0E20               	movlw	32
  2933   0010F2  6F66               	movwf	(___fldiv@a+2)& (0+255),b
  2934   0010F4  0E41               	movlw	65
  2935   0010F6  6F67               	movwf	(___fldiv@a+3)& (0+255),b
  2936   0010F8  EC93  F00F         	call	___fldiv	;wreg free
  2937   0010FC  C060  F0BE         	movff	?___fldiv,efgtoa@u
  2938   001100  C061  F0BF         	movff	?___fldiv+1,efgtoa@u+1
  2939   001104  C062  F0C0         	movff	?___fldiv+2,efgtoa@u+2
  2940   001108  C063  F0C1         	movff	?___fldiv+3,efgtoa@u+3
  2941   00110C                     
  2942                           ;C:\Program Files\Microchip\xc8\v2.45\pic\sources\c99\common\doprnt.c: 808:         --ne
      +                          ;
  2943   00110C  0100               	movlb	0	; () banked
  2944   00110E  0796               	decf	efgtoa@ne& (0+255),f,b
  2945   001110  A0D8               	btfss	status,0,c
  2946   001112  0797               	decf	(efgtoa@ne+1)& (0+255),f,b
  2947   001114                     
  2948                           ; BSR set to: 0
  2949                           ;C:\Program Files\Microchip\xc8\v2.45\pic\sources\c99\common\doprnt.c: 809:         ++i;
  2950   001114  4BAD               	infsnz	efgtoa@i& (0+255),f,b
  2951   001116  2BAE               	incf	(efgtoa@i+1)& (0+255),f,b
  2952   001118                     l6249:
  2953                           
  2954                           ; BSR set to: 0
  2955                           ;C:\Program Files\Microchip\xc8\v2.45\pic\sources\c99\common\doprnt.c: 779:     while ((
      +                          i < m) && (n < (80 - 5))) {
  2956   001118  51A3               	movf	efgtoa@m& (0+255),w,b
  2957   00111A  5DAD               	subwf	efgtoa@i& (0+255),w,b
  2958   00111C  51AE               	movf	(efgtoa@i+1)& (0+255),w,b
  2959   00111E  0A80               	xorlw	128
  2960   001120  6F94               	movwf	??_efgtoa& (0+255),b
  2961   001122  51A4               	movf	(efgtoa@m+1)& (0+255),w,b
  2962   001124  0A80               	xorlw	128
  2963   001126  5994               	subwfb	??_efgtoa& (0+255),w,b
  2964   001128  B0D8               	btfsc	status,0,c
  2965   00112A  EF99  F008         	goto	u7131
  2966   00112E  EF9B  F008         	goto	u7130
  2967   001132                     u7131:
  2968   001132  EFA9  F008         	goto	l6253
  2969   001136                     u7130:
  2970   001136                     
  2971                           ; BSR set to: 0
  2972   001136  BFBD               	btfsc	(efgtoa@n+1)& (0+255),7,b
  2973   001138  EFA7  F008         	goto	u7141
  2974   00113C  51BD               	movf	(efgtoa@n+1)& (0+255),w,b
  2975   00113E  E109               	bnz	u7140
  2976   001140  0E4B               	movlw	75
  2977   001142  5DBC               	subwf	efgtoa@n& (0+255),w,b
  2978   001144  A0D8               	btfss	status,0,c
  2979   001146  EFA7  F008         	goto	u7141
  2980   00114A  EFA9  F008         	goto	u7140
  2981   00114E                     u7141:
  2982   00114E  EFA6  F007         	goto	l6209
  2983   001152                     u7140:
  2984   001152                     l6253:
  2985                           
  2986                           ; BSR set to: 0
  2987                           ;C:\Program Files\Microchip\xc8\v2.45\pic\sources\c99\common\doprnt.c: 816:  i = sizeof(
      +                          dbuf) - 1;
  2988   001152  0E00               	movlw	0
  2989   001154  6FAE               	movwf	(efgtoa@i+1)& (0+255),b
  2990   001156  0E4F               	movlw	79
  2991   001158  6FAD               	movwf	efgtoa@i& (0+255),b
  2992   00115A                     
  2993                           ; BSR set to: 0
  2994                           ;C:\Program Files\Microchip\xc8\v2.45\pic\sources\c99\common\doprnt.c: 817:     dbuf[i] 
      +                          = '\0';
  2995   00115A  0E00               	movlw	low _dbuf
  2996   00115C  25AD               	addwf	efgtoa@i& (0+255),w,b
  2997   00115E  6ED9               	movwf	fsr2l,c
  2998   001160  0E01               	movlw	high _dbuf
  2999   001162  21AE               	addwfc	(efgtoa@i+1)& (0+255),w,b
  3000   001164  6EDA               	movwf	fsr2h,c
  3001   001166  6ADF               	clrf	indf2,c
  3002   001168                     
  3003                           ; BSR set to: 0
  3004                           ;C:\Program Files\Microchip\xc8\v2.45\pic\sources\c99\common\doprnt.c: 848:  memcpy(&dbu
      +                          f[i-n], &dbuf[0], (size_t)n);
  3005   001168  0E00               	movlw	low _dbuf
  3006   00116A  6F94               	movwf	??_efgtoa& (0+255),b
  3007   00116C  0E01               	movlw	high _dbuf
  3008   00116E  6F95               	movwf	(??_efgtoa+1)& (0+255),b
  3009   001170  51BC               	movf	efgtoa@n& (0+255),w,b
  3010   001172  5F94               	subwf	??_efgtoa& (0+255),f,b
  3011   001174  51BD               	movf	(efgtoa@n+1)& (0+255),w,b
  3012   001176  5B95               	subwfb	(??_efgtoa+1)& (0+255),f,b
  3013   001178  51AD               	movf	efgtoa@i& (0+255),w,b
  3014   00117A  2594               	addwf	??_efgtoa& (0+255),w,b
  3015   00117C  6F60               	movwf	memcpy@d1& (0+255),b
  3016   00117E  51AE               	movf	(efgtoa@i+1)& (0+255),w,b
  3017   001180  2195               	addwfc	(??_efgtoa+1)& (0+255),w,b
  3018   001182  6F61               	movwf	(memcpy@d1+1)& (0+255),b
  3019   001184  0E00               	movlw	low _dbuf
  3020   001186  6F62               	movwf	memcpy@s1& (0+255),b
  3021   001188  0E01               	movlw	high _dbuf
  3022   00118A  6F63               	movwf	(memcpy@s1+1)& (0+255),b
  3023   00118C  C0BC  F064         	movff	efgtoa@n,memcpy@n
  3024   001190  C0BD  F065         	movff	efgtoa@n+1,memcpy@n+1
  3025   001194  ECBF  F01B         	call	_memcpy	;wreg free
  3026   001198                     
  3027                           ;C:\Program Files\Microchip\xc8\v2.45\pic\sources\c99\common\doprnt.c: 849:  n = i-n;
  3028   001198  0100               	movlb	0	; () banked
  3029   00119A  51BC               	movf	efgtoa@n& (0+255),w,b
  3030   00119C  5DAD               	subwf	efgtoa@i& (0+255),w,b
  3031   00119E  6FBC               	movwf	efgtoa@n& (0+255),b
  3032   0011A0  51BD               	movf	(efgtoa@n+1)& (0+255),w,b
  3033   0011A2  59AE               	subwfb	(efgtoa@i+1)& (0+255),w,b
  3034   0011A4  6FBD               	movwf	(efgtoa@n+1)& (0+255),b
  3035   0011A6                     
  3036                           ; BSR set to: 0
  3037                           ;C:\Program Files\Microchip\xc8\v2.45\pic\sources\c99\common\doprnt.c: 850:  i = sign ==
      +                           0 ? 0 : 1;
  3038   0011A6  51B7               	movf	efgtoa@sign& (0+255),w,b
  3039   0011A8  A4D8               	btfss	status,2,c
  3040   0011AA  EFD9  F008         	goto	u7151
  3041   0011AE  EFDC  F008         	goto	u7150
  3042   0011B2                     u7151:
  3043   0011B2  0E01               	movlw	1
  3044   0011B4  EFDD  F008         	goto	u7160
  3045   0011B8                     u7150:
  3046   0011B8  0E00               	movlw	0
  3047   0011BA                     u7160:
  3048   0011BA  6FAD               	movwf	efgtoa@i& (0+255),b
  3049   0011BC  6BAE               	clrf	(efgtoa@i+1)& (0+255),b
  3050   0011BE                     
  3051                           ; BSR set to: 0
  3052                           ;C:\Program Files\Microchip\xc8\v2.45\pic\sources\c99\common\doprnt.c: 861:  if (sign) {
  3053   0011BE  51B7               	movf	efgtoa@sign& (0+255),w,b
  3054   0011C0  B4D8               	btfsc	status,2,c
  3055   0011C2  EFE5  F008         	goto	u7171
  3056   0011C6  EFE7  F008         	goto	u7170
  3057   0011CA                     u7171:
  3058   0011CA  EFF2  F008         	goto	l6267
  3059   0011CE                     u7170:
  3060   0011CE                     
  3061                           ; BSR set to: 0
  3062                           ;C:\Program Files\Microchip\xc8\v2.45\pic\sources\c99\common\doprnt.c: 862:   dbuf[--n] 
      +                          = sign;
  3063   0011CE  07BC               	decf	efgtoa@n& (0+255),f,b
  3064   0011D0  A0D8               	btfss	status,0,c
  3065   0011D2  07BD               	decf	(efgtoa@n+1)& (0+255),f,b
  3066   0011D4  0E00               	movlw	low _dbuf
  3067   0011D6  25BC               	addwf	efgtoa@n& (0+255),w,b
  3068   0011D8  6ED9               	movwf	fsr2l,c
  3069   0011DA  0E01               	movlw	high _dbuf
  3070   0011DC  21BD               	addwfc	(efgtoa@n+1)& (0+255),w,b
  3071   0011DE  6EDA               	movwf	fsr2h,c
  3072   0011E0  C0B7  FFDF         	movff	efgtoa@sign,indf2
  3073   0011E4                     l6267:
  3074                           
  3075                           ; BSR set to: 0
  3076                           ;C:\Program Files\Microchip\xc8\v2.45\pic\sources\c99\common\doprnt.c: 864:  w -= i;
  3077   0011E4  51AD               	movf	efgtoa@i& (0+255),w,b
  3078   0011E6  5FA7               	subwf	efgtoa@w& (0+255),f,b
  3079   0011E8  51AE               	movf	(efgtoa@i+1)& (0+255),w,b
  3080   0011EA  5BA8               	subwfb	(efgtoa@w+1)& (0+255),f,b
  3081   0011EC                     
  3082                           ; BSR set to: 0
  3083                           ;C:\Program Files\Microchip\xc8\v2.45\pic\sources\c99\common\doprnt.c: 867:     return (
      +                          void) pad(fp, &dbuf[n], w);
  3084   0011EC  C08D  F070         	movff	efgtoa@fp,pad@fp
  3085   0011F0  C08E  F071         	movff	efgtoa@fp+1,pad@fp+1
  3086   0011F4  0E00               	movlw	low _dbuf
  3087   0011F6  25BC               	addwf	efgtoa@n& (0+255),w,b
  3088   0011F8  6F72               	movwf	pad@buf& (0+255),b
  3089   0011FA  0E01               	movlw	high _dbuf
  3090   0011FC  21BD               	addwfc	(efgtoa@n+1)& (0+255),w,b
  3091   0011FE  6F73               	movwf	(pad@buf+1)& (0+255),b
  3092   001200  C0A7  F074         	movff	efgtoa@w,pad@p
  3093   001204  C0A8  F075         	movff	efgtoa@w+1,pad@p+1
  3094   001208  ECF9  F01A         	call	_pad	;wreg free
  3095   00120C                     l879:
  3096   00120C  0012               	return		;funcret
  3097   00120E                     __end_of_efgtoa:
  3098                           	callstack 0
  3099                           
  3100 ;; *************** function _strcpy *****************
  3101 ;; Defined at:
  3102 ;;		line 3 in file "C:\Program Files\Microchip\xc8\v2.45\pic\sources\c99\common\strcpy.c"
  3103 ;; Parameters:    Size  Location     Type
  3104 ;;  dest            2    0[BANK0 ] PTR unsigned char 
  3105 ;;		 -> dbuf(80), 
  3106 ;;  src             1    2[BANK0 ] PTR const unsigned char 
  3107 ;;		 -> STR_6(4), STR_3(4), 
  3108 ;; Auto vars:     Size  Location     Type
  3109 ;;  d               2    3[BANK0 ] PTR unsigned char 
  3110 ;;		 -> dbuf(80), 
  3111 ;; Return value:  Size  Location     Type
  3112 ;;                  2    0[BANK0 ] PTR unsigned char 
  3113 ;; Registers used:
  3114 ;;		wreg, fsr2l, fsr2h, status,2, status,0, tblptrl, tblptrh, tblptru
  3115 ;; Tracked objects:
  3116 ;;		On entry : 0/0
  3117 ;;		On exit  : 0/0
  3118 ;;		Unchanged: 0/0
  3119 ;; Data sizes:     COMRAM   BANK0   BANK1   BANK2   BANK3   BANK4   BANK5   BANK6   BANK7
  3120 ;;      Params:         0       3       0       0       0       0       0       0       0
  3121 ;;      Locals:         0       2       0       0       0       0       0       0       0
  3122 ;;      Temps:          1       0       0       0       0       0       0       0       0
  3123 ;;      Totals:         1       5       0       0       0       0       0       0       0
  3124 ;;Total ram usage:        6 bytes
  3125 ;; Hardware stack levels used: 1
  3126 ;; Hardware stack levels required when called: 2
  3127 ;; This function calls:
  3128 ;;		Nothing
  3129 ;; This function is called by:
  3130 ;;		_efgtoa
  3131 ;; This function uses a non-reentrant model
  3132 ;;
  3133                           
  3134                           	psect	text5
  3135   0038EE                     __ptext5:
  3136                           	callstack 0
  3137   0038EE                     _strcpy:
  3138                           	callstack 24
  3139   0038EE  C060  F063         	movff	strcpy@dest,strcpy@d
  3140   0038F2  C061  F064         	movff	strcpy@dest+1,strcpy@d+1
  3141   0038F6                     l5241:
  3142   0038F6  0100               	movlb	0	; () banked
  3143   0038F8  2B62               	incf	strcpy@src& (0+255),f,b
  3144   0038FA  0562               	decf	strcpy@src& (0+255),w,b
  3145   0038FC  6E2C               	movwf	??_strcpy^0,c
  3146   0038FE  C02C  FFF6         	movff	??_strcpy,tblptrl
  3147   003902                     	if	1	;There is more than 1 active tblptr byte
  3148   003902  0E08               	movlw	high __smallconst
  3149   003904  6EF7               	movwf	tblptrh,c
  3150   003906                     	endif
  3151   003906                     	if	0	;tblptru may be non-zero
  3152   003906                     	endif
  3153   003906                     	if	0	;tblptru may be non-zero
  3154   003906                     	endif
  3155   003906  C063  FFD9         	movff	strcpy@d,fsr2l
  3156   00390A  C064  FFDA         	movff	strcpy@d+1,fsr2h
  3157   00390E  4B63               	infsnz	strcpy@d& (0+255),f,b
  3158   003910  2B64               	incf	(strcpy@d+1)& (0+255),f,b
  3159   003912  0008               	tblrd		*
  3160   003914  CFF5 FFDF          	movff	tablat,indf2
  3161   003918  50DF               	movf	indf2,w,c
  3162   00391A  A4D8               	btfss	status,2,c
  3163   00391C  EF92  F01C         	goto	u6041
  3164   003920  EF94  F01C         	goto	u6040
  3165   003924                     u6041:
  3166   003924  EF7B  F01C         	goto	l5241
  3167   003928                     u6040:
  3168   003928                     
  3169                           ; BSR set to: 0
  3170   003928  0012               	return		;funcret
  3171   00392A                     __end_of_strcpy:
  3172                           	callstack 0
  3173                           
  3174 ;; *************** function _pad *****************
  3175 ;; Defined at:
  3176 ;;		line 193 in file "C:\Program Files\Microchip\xc8\v2.45\pic\sources\c99\common\doprnt.c"
  3177 ;; Parameters:    Size  Location     Type
  3178 ;;  fp              2   16[BANK0 ] PTR struct _IO_FILE
  3179 ;;		 -> sprintf@f(12), 
  3180 ;;  buf             2   18[BANK0 ] PTR unsigned char 
  3181 ;;		 -> dbuf(80), 
  3182 ;;  p               2   20[BANK0 ] int 
  3183 ;; Auto vars:     Size  Location     Type
  3184 ;;  i               2   22[BANK0 ] int 
  3185 ;; Return value:  Size  Location     Type
  3186 ;;                  1    wreg      void 
  3187 ;; Registers used:
  3188 ;;		wreg, fsr1l, fsr1h, fsr2l, fsr2h, status,2, status,0, cstack
  3189 ;; Tracked objects:
  3190 ;;		On entry : 0/0
  3191 ;;		On exit  : 0/0
  3192 ;;		Unchanged: 0/0
  3193 ;; Data sizes:     COMRAM   BANK0   BANK1   BANK2   BANK3   BANK4   BANK5   BANK6   BANK7
  3194 ;;      Params:         0       6       0       0       0       0       0       0       0
  3195 ;;      Locals:         0       2       0       0       0       0       0       0       0
  3196 ;;      Temps:          1       0       0       0       0       0       0       0       0
  3197 ;;      Totals:         1       8       0       0       0       0       0       0       0
  3198 ;;Total ram usage:        9 bytes
  3199 ;; Hardware stack levels used: 1
  3200 ;; Hardware stack levels required when called: 5
  3201 ;; This function calls:
  3202 ;;		_fputc
  3203 ;;		_fputs
  3204 ;; This function is called by:
  3205 ;;		_efgtoa
  3206 ;; This function uses a non-reentrant model
  3207 ;;
  3208                           
  3209                           	psect	text6
  3210   0035F2                     __ptext6:
  3211                           	callstack 0
  3212   0035F2                     _pad:
  3213                           	callstack 21
  3214   0035F2                     
  3215                           ;C:\Program Files\Microchip\xc8\v2.45\pic\sources\c99\common\doprnt.c: 193: static void 
      +                          pad(FILE *fp, char *buf, int p);C:\Program Files\Microchip\xc8\v2.45\pic\sources\c99\com
      +                          mon\doprnt.c: 194: {;C:\Program Files\Microchip\xc8\v2.45\pic\sources\c99\common\doprnt.
      +                          c: 195:     int i;;C:\Program Files\Microchip\xc8\v2.45\pic\sources\c99\common\doprnt.c:
      +                           205:  if (p < 0) {
  3216   0035F2  0100               	movlb	0	; () banked
  3217   0035F4  BF75               	btfsc	(pad@p+1)& (0+255),7,b
  3218   0035F6  EF01  F01B         	goto	u6840
  3219   0035FA  EFFF  F01A         	goto	u6841
  3220   0035FE                     u6841:
  3221   0035FE  EF05  F01B         	goto	l864
  3222   003602                     u6840:
  3223   003602                     
  3224                           ; BSR set to: 0
  3225                           ;C:\Program Files\Microchip\xc8\v2.45\pic\sources\c99\common\doprnt.c: 206:   p = 0;
  3226   003602  0E00               	movlw	0
  3227   003604  6F75               	movwf	(pad@p+1)& (0+255),b
  3228   003606  0E00               	movlw	0
  3229   003608  6F74               	movwf	pad@p& (0+255),b
  3230   00360A                     l864:
  3231                           
  3232                           ; BSR set to: 0
  3233                           ;C:\Program Files\Microchip\xc8\v2.45\pic\sources\c99\common\doprnt.c: 208:     i = 0;
  3234   00360A  0E00               	movlw	0
  3235   00360C  6F77               	movwf	(pad@i+1)& (0+255),b
  3236   00360E  0E00               	movlw	0
  3237   003610  6F76               	movwf	pad@i& (0+255),b
  3238                           
  3239                           ;C:\Program Files\Microchip\xc8\v2.45\pic\sources\c99\common\doprnt.c: 209:     while (i
      +                           < p) {
  3240   003612  EF18  F01B         	goto	l6047
  3241   003616                     l6043:
  3242                           
  3243                           ; BSR set to: 0
  3244                           ;C:\Program Files\Microchip\xc8\v2.45\pic\sources\c99\common\doprnt.c: 210:         fput
      +                          c(' ', fp);
  3245   003616  0E00               	movlw	0
  3246   003618  6F61               	movwf	(fputc@c+1)& (0+255),b
  3247   00361A  0E20               	movlw	32
  3248   00361C  6F60               	movwf	fputc@c& (0+255),b
  3249   00361E  C070  F062         	movff	pad@fp,fputc@fp
  3250   003622  C071  F063         	movff	pad@fp+1,fputc@fp+1
  3251   003626  EC71  F019         	call	_fputc	;wreg free
  3252   00362A                     
  3253                           ;C:\Program Files\Microchip\xc8\v2.45\pic\sources\c99\common\doprnt.c: 211:         ++i;
  3254   00362A  0100               	movlb	0	; () banked
  3255   00362C  4B76               	infsnz	pad@i& (0+255),f,b
  3256   00362E  2B77               	incf	(pad@i+1)& (0+255),f,b
  3257   003630                     l6047:
  3258                           
  3259                           ; BSR set to: 0
  3260                           ;C:\Program Files\Microchip\xc8\v2.45\pic\sources\c99\common\doprnt.c: 209:     while (i
      +                           < p) {
  3261   003630  5174               	movf	pad@p& (0+255),w,b
  3262   003632  5D76               	subwf	pad@i& (0+255),w,b
  3263   003634  5177               	movf	(pad@i+1)& (0+255),w,b
  3264   003636  0A80               	xorlw	128
  3265   003638  6E2C               	movwf	??_pad^0,c
  3266   00363A  5175               	movf	(pad@p+1)& (0+255),w,b
  3267   00363C  0A80               	xorlw	128
  3268   00363E  582C               	subwfb	??_pad^0,w,c
  3269   003640  A0D8               	btfss	status,0,c
  3270   003642  EF25  F01B         	goto	u6851
  3271   003646  EF27  F01B         	goto	u6850
  3272   00364A                     u6851:
  3273   00364A  EF0B  F01B         	goto	l6043
  3274   00364E                     u6850:
  3275   00364E                     
  3276                           ; BSR set to: 0
  3277                           ;C:\Program Files\Microchip\xc8\v2.45\pic\sources\c99\common\doprnt.c: 218:         fput
      +                          s((const char *)buf, fp);
  3278   00364E  C072  F069         	movff	pad@buf,fputs@s
  3279   003652  C073  F06A         	movff	pad@buf+1,fputs@s+1
  3280   003656  C070  F06B         	movff	pad@fp,fputs@fp
  3281   00365A  C071  F06C         	movff	pad@fp+1,fputs@fp+1
  3282   00365E  EC0D  F01C         	call	_fputs	;wreg free
  3283   003662  0012               	return		;funcret
  3284   003664                     __end_of_pad:
  3285                           	callstack 0
  3286                           
  3287 ;; *************** function _fputs *****************
  3288 ;; Defined at:
  3289 ;;		line 8 in file "C:\Program Files\Microchip\xc8\v2.45\pic\sources\c99\common\nf_fputs.c"
  3290 ;; Parameters:    Size  Location     Type
  3291 ;;  s               2    9[BANK0 ] PTR const unsigned char 
  3292 ;;		 -> dbuf(80), 
  3293 ;;  fp              2   11[BANK0 ] PTR struct _IO_FILE
  3294 ;;		 -> sprintf@f(12), 
  3295 ;; Auto vars:     Size  Location     Type
  3296 ;;  i               2   14[BANK0 ] int 
  3297 ;;  c               1   13[BANK0 ] unsigned char 
  3298 ;; Return value:  Size  Location     Type
  3299 ;;                  2    9[BANK0 ] int 
  3300 ;; Registers used:
  3301 ;;		wreg, fsr1l, fsr1h, fsr2l, fsr2h, status,2, status,0, cstack
  3302 ;; Tracked objects:
  3303 ;;		On entry : 0/0
  3304 ;;		On exit  : 0/0
  3305 ;;		Unchanged: 0/0
  3306 ;; Data sizes:     COMRAM   BANK0   BANK1   BANK2   BANK3   BANK4   BANK5   BANK6   BANK7
  3307 ;;      Params:         0       4       0       0       0       0       0       0       0
  3308 ;;      Locals:         0       3       0       0       0       0       0       0       0
  3309 ;;      Temps:          0       0       0       0       0       0       0       0       0
  3310 ;;      Totals:         0       7       0       0       0       0       0       0       0
  3311 ;;Total ram usage:        7 bytes
  3312 ;; Hardware stack levels used: 1
  3313 ;; Hardware stack levels required when called: 4
  3314 ;; This function calls:
  3315 ;;		_fputc
  3316 ;; This function is called by:
  3317 ;;		_pad
  3318 ;; This function uses a non-reentrant model
  3319 ;;
  3320                           
  3321                           	psect	text7
  3322   00381A                     __ptext7:
  3323                           	callstack 0
  3324   00381A                     _fputs:
  3325                           	callstack 21
  3326   00381A  0E00               	movlw	0
  3327   00381C  0100               	movlb	0	; () banked
  3328   00381E  6F6F               	movwf	(fputs@i+1)& (0+255),b
  3329   003820  0E00               	movlw	0
  3330   003822  6F6E               	movwf	fputs@i& (0+255),b
  3331   003824  EF20  F01C         	goto	l6037
  3332   003828                     l6033:
  3333                           
  3334                           ; BSR set to: 0
  3335   003828  C06D  F060         	movff	fputs@c,fputc@c
  3336   00382C  6B61               	clrf	(fputc@c+1)& (0+255),b
  3337   00382E  C06B  F062         	movff	fputs@fp,fputc@fp
  3338   003832  C06C  F063         	movff	fputs@fp+1,fputc@fp+1
  3339   003836  EC71  F019         	call	_fputc	;wreg free
  3340   00383A  0100               	movlb	0	; () banked
  3341   00383C  4B6E               	infsnz	fputs@i& (0+255),f,b
  3342   00383E  2B6F               	incf	(fputs@i+1)& (0+255),f,b
  3343   003840                     l6037:
  3344                           
  3345                           ; BSR set to: 0
  3346   003840  516E               	movf	fputs@i& (0+255),w,b
  3347   003842  2569               	addwf	fputs@s& (0+255),w,b
  3348   003844  6ED9               	movwf	fsr2l,c
  3349   003846  516F               	movf	(fputs@i+1)& (0+255),w,b
  3350   003848  216A               	addwfc	(fputs@s+1)& (0+255),w,b
  3351   00384A  6EDA               	movwf	fsr2h,c
  3352   00384C  50DF               	movf	indf2,w,c
  3353   00384E  6F6D               	movwf	fputs@c& (0+255),b
  3354   003850  516D               	movf	fputs@c& (0+255),w,b
  3355   003852  A4D8               	btfss	status,2,c
  3356   003854  EF2E  F01C         	goto	u6831
  3357   003858  EF30  F01C         	goto	u6830
  3358   00385C                     u6831:
  3359   00385C  EF14  F01C         	goto	l6033
  3360   003860                     u6830:
  3361   003860                     
  3362                           ; BSR set to: 0
  3363   003860  0012               	return		;funcret
  3364   003862                     __end_of_fputs:
  3365                           	callstack 0
  3366                           
  3367 ;; *************** function _fputc *****************
  3368 ;; Defined at:
  3369 ;;		line 8 in file "C:\Program Files\Microchip\xc8\v2.45\pic\sources\c99\common\nf_fputc.c"
  3370 ;; Parameters:    Size  Location     Type
  3371 ;;  c               2    0[BANK0 ] int 
  3372 ;;  fp              2    2[BANK0 ] PTR struct _IO_FILE
  3373 ;;		 -> sprintf@f(12), 
  3374 ;; Auto vars:     Size  Location     Type
  3375 ;;		None
  3376 ;; Return value:  Size  Location     Type
  3377 ;;                  2    0[BANK0 ] int 
  3378 ;; Registers used:
  3379 ;;		wreg, fsr1l, fsr1h, fsr2l, fsr2h, status,2, status,0, cstack
  3380 ;; Tracked objects:
  3381 ;;		On entry : 0/0
  3382 ;;		On exit  : 0/0
  3383 ;;		Unchanged: 0/0
  3384 ;; Data sizes:     COMRAM   BANK0   BANK1   BANK2   BANK3   BANK4   BANK5   BANK6   BANK7
  3385 ;;      Params:         0       4       0       0       0       0       0       0       0
  3386 ;;      Locals:         0       0       0       0       0       0       0       0       0
  3387 ;;      Temps:          0       5       0       0       0       0       0       0       0
  3388 ;;      Totals:         0       9       0       0       0       0       0       0       0
  3389 ;;Total ram usage:        9 bytes
  3390 ;; Hardware stack levels used: 1
  3391 ;; Hardware stack levels required when called: 3
  3392 ;; This function calls:
  3393 ;;		_putch
  3394 ;; This function is called by:
  3395 ;;		_pad
  3396 ;;		_vfpfcnvrt
  3397 ;;		_fputs
  3398 ;; This function uses a non-reentrant model
  3399 ;;
  3400                           
  3401                           	psect	text8
  3402   0032E2                     __ptext8:
  3403                           	callstack 0
  3404   0032E2                     _fputc:
  3405                           	callstack 24
  3406   0032E2  0100               	movlb	0	; () banked
  3407   0032E4  5162               	movf	fputc@fp& (0+255),w,b
  3408   0032E6  1163               	iorwf	(fputc@fp+1)& (0+255),w,b
  3409   0032E8  B4D8               	btfsc	status,2,c
  3410   0032EA  EF79  F019         	goto	u6791
  3411   0032EE  EF7B  F019         	goto	u6790
  3412   0032F2                     u6791:
  3413   0032F2  EF84  F019         	goto	l6021
  3414   0032F6                     u6790:
  3415   0032F6                     
  3416                           ; BSR set to: 0
  3417   0032F6  5162               	movf	fputc@fp& (0+255),w,b
  3418   0032F8  1163               	iorwf	(fputc@fp+1)& (0+255),w,b
  3419   0032FA  A4D8               	btfss	status,2,c
  3420   0032FC  EF82  F019         	goto	u6801
  3421   003300  EF84  F019         	goto	u6800
  3422   003304                     u6801:
  3423   003304  EF89  F019         	goto	l6023
  3424   003308                     u6800:
  3425   003308                     l6021:
  3426                           
  3427                           ; BSR set to: 0
  3428   003308  5160               	movf	fputc@c& (0+255),w,b
  3429   00330A  EC1F  F01D         	call	_putch
  3430   00330E  EFCE  F019         	goto	l1008
  3431   003312                     l6023:
  3432                           
  3433                           ; BSR set to: 0
  3434   003312  EE20 F00A          	lfsr	2,10
  3435   003316  5162               	movf	fputc@fp& (0+255),w,b
  3436   003318  26D9               	addwf	fsr2l,f,c
  3437   00331A  5163               	movf	(fputc@fp+1)& (0+255),w,b
  3438   00331C  22DA               	addwfc	fsr2h,f,c
  3439   00331E  50DE               	movf	postinc2,w,c
  3440   003320  10DE               	iorwf	postinc2,w,c
  3441   003322  B4D8               	btfsc	status,2,c
  3442   003324  EF96  F019         	goto	u6811
  3443   003328  EF98  F019         	goto	u6810
  3444   00332C                     u6811:
  3445   00332C  EFB3  F019         	goto	l6027
  3446   003330                     u6810:
  3447   003330                     
  3448                           ; BSR set to: 0
  3449   003330  EE20 F00A          	lfsr	2,10
  3450   003334  5162               	movf	fputc@fp& (0+255),w,b
  3451   003336  26D9               	addwf	fsr2l,f,c
  3452   003338  5163               	movf	(fputc@fp+1)& (0+255),w,b
  3453   00333A  22DA               	addwfc	fsr2h,f,c
  3454   00333C  EE10 F003          	lfsr	1,3
  3455   003340  5162               	movf	fputc@fp& (0+255),w,b
  3456   003342  26E1               	addwf	fsr1l,f,c
  3457   003344  5163               	movf	(fputc@fp+1)& (0+255),w,b
  3458   003346  22E2               	addwfc	fsr1h,f,c
  3459   003348  50DE               	movf	postinc2,w,c
  3460   00334A  5CE6               	subwf	postinc1,w,c
  3461   00334C  50E6               	movf	postinc1,w,c
  3462   00334E  0A80               	xorlw	128
  3463   003350  6F68               	movwf	(??_fputc+4)& (0+255),b
  3464   003352  50DE               	movf	postinc2,w,c
  3465   003354  0A80               	xorlw	128
  3466   003356  5968               	subwfb	(??_fputc+4)& (0+255),w,b
  3467   003358  B0D8               	btfsc	status,0,c
  3468   00335A  EFB1  F019         	goto	u6821
  3469   00335E  EFB3  F019         	goto	u6820
  3470   003362                     u6821:
  3471   003362  EFCE  F019         	goto	l1008
  3472   003366                     u6820:
  3473   003366                     l6027:
  3474                           
  3475                           ; BSR set to: 0
  3476   003366  EE20 F003          	lfsr	2,3
  3477   00336A  5162               	movf	fputc@fp& (0+255),w,b
  3478   00336C  26D9               	addwf	fsr2l,f,c
  3479   00336E  5163               	movf	(fputc@fp+1)& (0+255),w,b
  3480   003370  22DA               	addwfc	fsr2h,f,c
  3481   003372  50DF               	movf	indf2,w,c
  3482   003374  6F64               	movwf	??_fputc& (0+255),b
  3483   003376  C062  FFD9         	movff	fputc@fp,fsr2l
  3484   00337A  C063  FFDA         	movff	fputc@fp+1,fsr2h
  3485   00337E  50DF               	movf	indf2,w,c
  3486   003380  2564               	addwf	??_fputc& (0+255),w,b
  3487   003382  6ED9               	movwf	fsr2l,c
  3488   003384  6ADA               	clrf	fsr2h,c
  3489   003386  C060  FFDF         	movff	fputc@c,indf2
  3490   00338A  EE20 F003          	lfsr	2,3
  3491   00338E  5162               	movf	fputc@fp& (0+255),w,b
  3492   003390  26D9               	addwf	fsr2l,f,c
  3493   003392  5163               	movf	(fputc@fp+1)& (0+255),w,b
  3494   003394  22DA               	addwfc	fsr2h,f,c
  3495   003396  2ADE               	incf	postinc2,f,c
  3496   003398  0E00               	movlw	0
  3497   00339A  22DD               	addwfc	postdec2,f,c
  3498   00339C                     l1008:
  3499   00339C  0012               	return		;funcret
  3500   00339E                     __end_of_fputc:
  3501                           	callstack 0
  3502                           
  3503 ;; *************** function _putch *****************
  3504 ;; Defined at:
  3505 ;;		line 7 in file "C:\Program Files\Microchip\xc8\v2.45\pic\sources\c99\common\putch.c"
  3506 ;; Parameters:    Size  Location     Type
  3507 ;;  c               1    wreg     unsigned char 
  3508 ;; Auto vars:     Size  Location     Type
  3509 ;;  c               1    0[COMRAM] unsigned char 
  3510 ;; Return value:  Size  Location     Type
  3511 ;;                  1    wreg      void 
  3512 ;; Registers used:
  3513 ;;		wreg
  3514 ;; Tracked objects:
  3515 ;;		On entry : 0/0
  3516 ;;		On exit  : 0/0
  3517 ;;		Unchanged: 0/0
  3518 ;; Data sizes:     COMRAM   BANK0   BANK1   BANK2   BANK3   BANK4   BANK5   BANK6   BANK7
  3519 ;;      Params:         0       0       0       0       0       0       0       0       0
  3520 ;;      Locals:         0       0       0       0       0       0       0       0       0
  3521 ;;      Temps:          0       0       0       0       0       0       0       0       0
  3522 ;;      Totals:         0       0       0       0       0       0       0       0       0
  3523 ;;Total ram usage:        0 bytes
  3524 ;; Hardware stack levels used: 1
  3525 ;; Hardware stack levels required when called: 2
  3526 ;; This function calls:
  3527 ;;		Nothing
  3528 ;; This function is called by:
  3529 ;;		_fputc
  3530 ;; This function uses a non-reentrant model
  3531 ;;
  3532                           
  3533                           	psect	text9
  3534   003A3E                     __ptext9:
  3535                           	callstack 0
  3536   003A3E                     _putch:
  3537                           	callstack 24
  3538   003A3E  0012               	return		;funcret
  3539   003A40                     __end_of_putch:
  3540                           	callstack 0
  3541                           
  3542 ;; *************** function _memcpy *****************
  3543 ;; Defined at:
  3544 ;;		line 4 in file "C:\Program Files\Microchip\xc8\v2.45\pic\sources\c99\common\memcpy.c"
  3545 ;; Parameters:    Size  Location     Type
  3546 ;;  d1              2    0[BANK0 ] PTR void 
  3547 ;;		 -> dbuf(80), 
  3548 ;;  s1              2    2[BANK0 ] PTR const void 
  3549 ;;		 -> dbuf(80), 
  3550 ;;  n               2    4[BANK0 ] unsigned int 
  3551 ;; Auto vars:     Size  Location     Type
  3552 ;;  s               2    9[BANK0 ] PTR const unsigned char 
  3553 ;;		 -> dbuf(80), 
  3554 ;;  d               2    7[BANK0 ] PTR unsigned char 
  3555 ;;		 -> dbuf(80), 
  3556 ;;  tmp             1    6[BANK0 ] unsigned char 
  3557 ;; Return value:  Size  Location     Type
  3558 ;;                  2    0[BANK0 ] PTR void 
  3559 ;; Registers used:
  3560 ;;		wreg, fsr2l, fsr2h, status,2, status,0
  3561 ;; Tracked objects:
  3562 ;;		On entry : 0/0
  3563 ;;		On exit  : 0/0
  3564 ;;		Unchanged: 0/0
  3565 ;; Data sizes:     COMRAM   BANK0   BANK1   BANK2   BANK3   BANK4   BANK5   BANK6   BANK7
  3566 ;;      Params:         0       6       0       0       0       0       0       0       0
  3567 ;;      Locals:         0       5       0       0       0       0       0       0       0
  3568 ;;      Temps:          0       0       0       0       0       0       0       0       0
  3569 ;;      Totals:         0      11       0       0       0       0       0       0       0
  3570 ;;Total ram usage:       11 bytes
  3571 ;; Hardware stack levels used: 1
  3572 ;; Hardware stack levels required when called: 2
  3573 ;; This function calls:
  3574 ;;		Nothing
  3575 ;; This function is called by:
  3576 ;;		_efgtoa
  3577 ;; This function uses a non-reentrant model
  3578 ;;
  3579                           
  3580                           	psect	text10
  3581   00377E                     __ptext10:
  3582                           	callstack 0
  3583   00377E                     _memcpy:
  3584                           	callstack 24
  3585   00377E  C062  F069         	movff	memcpy@s1,memcpy@s
  3586   003782  C063  F06A         	movff	memcpy@s1+1,memcpy@s+1
  3587   003786  C060  F067         	movff	memcpy@d1,memcpy@d
  3588   00378A  C061  F068         	movff	memcpy@d1+1,memcpy@d+1
  3589   00378E  EFD9  F01B         	goto	l5289
  3590   003792                     l5281:
  3591                           
  3592                           ; BSR set to: 0
  3593   003792  C069  FFD9         	movff	memcpy@s,fsr2l
  3594   003796  C06A  FFDA         	movff	memcpy@s+1,fsr2h
  3595   00379A  50DF               	movf	indf2,w,c
  3596   00379C  6F66               	movwf	memcpy@tmp& (0+255),b
  3597   00379E                     
  3598                           ; BSR set to: 0
  3599   00379E  4B69               	infsnz	memcpy@s& (0+255),f,b
  3600   0037A0  2B6A               	incf	(memcpy@s+1)& (0+255),f,b
  3601   0037A2                     
  3602                           ; BSR set to: 0
  3603   0037A2  C067  FFD9         	movff	memcpy@d,fsr2l
  3604   0037A6  C068  FFDA         	movff	memcpy@d+1,fsr2h
  3605   0037AA  C066  FFDF         	movff	memcpy@tmp,indf2
  3606   0037AE                     
  3607                           ; BSR set to: 0
  3608   0037AE  4B67               	infsnz	memcpy@d& (0+255),f,b
  3609   0037B0  2B68               	incf	(memcpy@d+1)& (0+255),f,b
  3610   0037B2                     l5289:
  3611   0037B2  0100               	movlb	0	; () banked
  3612   0037B4  0764               	decf	memcpy@n& (0+255),f,b
  3613   0037B6  A0D8               	btfss	status,0,c
  3614   0037B8  0765               	decf	(memcpy@n+1)& (0+255),f,b
  3615   0037BA  2964               	incf	memcpy@n& (0+255),w,b
  3616   0037BC  E106               	bnz	u6161
  3617   0037BE  2965               	incf	(memcpy@n+1)& (0+255),w,b
  3618   0037C0  A4D8               	btfss	status,2,c
  3619   0037C2  EFE5  F01B         	goto	u6161
  3620   0037C6  EFE7  F01B         	goto	u6160
  3621   0037CA                     u6161:
  3622   0037CA  EFC9  F01B         	goto	l5281
  3623   0037CE                     u6160:
  3624   0037CE                     
  3625                           ; BSR set to: 0
  3626   0037CE  0012               	return		;funcret
  3627   0037D0                     __end_of_memcpy:
  3628                           	callstack 0
  3629                           
  3630 ;; *************** function _labs *****************
  3631 ;; Defined at:
  3632 ;;		line 1 in file "C:\Program Files\Microchip\xc8\v2.45\pic\sources\c99\common\labs.c"
  3633 ;; Parameters:    Size  Location     Type
  3634 ;;  a               4    0[BANK0 ] long 
  3635 ;; Auto vars:     Size  Location     Type
  3636 ;;		None
  3637 ;; Return value:  Size  Location     Type
  3638 ;;                  4    0[BANK0 ] long 
  3639 ;; Registers used:
  3640 ;;		wreg, status,2, status,0
  3641 ;; Tracked objects:
  3642 ;;		On entry : 0/0
  3643 ;;		On exit  : 0/0
  3644 ;;		Unchanged: 0/0
  3645 ;; Data sizes:     COMRAM   BANK0   BANK1   BANK2   BANK3   BANK4   BANK5   BANK6   BANK7
  3646 ;;      Params:         0       4       0       0       0       0       0       0       0
  3647 ;;      Locals:         0       0       0       0       0       0       0       0       0
  3648 ;;      Temps:          0       4       0       0       0       0       0       0       0
  3649 ;;      Totals:         0       8       0       0       0       0       0       0       0
  3650 ;;Total ram usage:        8 bytes
  3651 ;; Hardware stack levels used: 1
  3652 ;; Hardware stack levels required when called: 2
  3653 ;; This function calls:
  3654 ;;		Nothing
  3655 ;; This function is called by:
  3656 ;;		_efgtoa
  3657 ;; This function uses a non-reentrant model
  3658 ;;
  3659                           
  3660                           	psect	text11
  3661   003726                     __ptext11:
  3662                           	callstack 0
  3663   003726                     _labs:
  3664                           	callstack 24
  3665   003726  0100               	movlb	0	; () banked
  3666   003728  BF63               	btfsc	(labs@a+3)& (0+255),7,b
  3667   00372A  EF99  F01B         	goto	u6051
  3668   00372E  EF9B  F01B         	goto	u6050
  3669   003732                     u6051:
  3670   003732  EFA5  F01B         	goto	l5247
  3671   003736                     u6050:
  3672   003736                     
  3673                           ; BSR set to: 0
  3674   003736  C060  F060         	movff	labs@a,?_labs
  3675   00373A  C061  F061         	movff	labs@a+1,?_labs+1
  3676   00373E  C062  F062         	movff	labs@a+2,?_labs+2
  3677   003742  C063  F063         	movff	labs@a+3,?_labs+3
  3678   003746  EFBE  F01B         	goto	l990
  3679   00374A                     l5247:
  3680                           
  3681                           ; BSR set to: 0
  3682   00374A  C060  F064         	movff	labs@a,??_labs
  3683   00374E  C061  F065         	movff	labs@a+1,??_labs+1
  3684   003752  C062  F066         	movff	labs@a+2,??_labs+2
  3685   003756  C063  F067         	movff	labs@a+3,??_labs+3
  3686   00375A  1F64               	comf	??_labs& (0+255),f,b
  3687   00375C  1F65               	comf	(??_labs+1)& (0+255),f,b
  3688   00375E  1F66               	comf	(??_labs+2)& (0+255),f,b
  3689   003760  1F67               	comf	(??_labs+3)& (0+255),f,b
  3690   003762  2B64               	incf	??_labs& (0+255),f,b
  3691   003764  0E00               	movlw	0
  3692   003766  2365               	addwfc	(??_labs+1)& (0+255),f,b
  3693   003768  2366               	addwfc	(??_labs+2)& (0+255),f,b
  3694   00376A  2367               	addwfc	(??_labs+3)& (0+255),f,b
  3695   00376C  C064  F060         	movff	??_labs,?_labs
  3696   003770  C065  F061         	movff	??_labs+1,?_labs+1
  3697   003774  C066  F062         	movff	??_labs+2,?_labs+2
  3698   003778  C067  F063         	movff	??_labs+3,?_labs+3
  3699   00377C                     l990:
  3700                           
  3701                           ; BSR set to: 0
  3702   00377C  0012               	return		;funcret
  3703   00377E                     __end_of_labs:
  3704                           	callstack 0
  3705                           
  3706 ;; *************** function _floorf *****************
  3707 ;; Defined at:
  3708 ;;		line 3 in file "C:\Program Files\Microchip\xc8\v2.45\pic\sources\c99\common\floorf.c"
  3709 ;; Parameters:    Size  Location     Type
  3710 ;;  x               4   25[BANK0 ] float 
  3711 ;; Auto vars:     Size  Location     Type
  3712 ;;  u               4   41[BANK0 ] struct .
  3713 ;;  m               4   35[BANK0 ] unsigned long 
  3714 ;;  e               2   39[BANK0 ] int 
  3715 ;; Return value:  Size  Location     Type
  3716 ;;                  4   25[BANK0 ] float 
  3717 ;; Registers used:
  3718 ;;		wreg, status,2, status,0
  3719 ;; Tracked objects:
  3720 ;;		On entry : 0/0
  3721 ;;		On exit  : 0/0
  3722 ;;		Unchanged: 0/0
  3723 ;; Data sizes:     COMRAM   BANK0   BANK1   BANK2   BANK3   BANK4   BANK5   BANK6   BANK7
  3724 ;;      Params:         0       4       0       0       0       0       0       0       0
  3725 ;;      Locals:         0      10       0       0       0       0       0       0       0
  3726 ;;      Temps:          0       6       0       0       0       0       0       0       0
  3727 ;;      Totals:         0      20       0       0       0       0       0       0       0
  3728 ;;Total ram usage:       20 bytes
  3729 ;; Hardware stack levels used: 1
  3730 ;; Hardware stack levels required when called: 2
  3731 ;; This function calls:
  3732 ;;		Nothing
  3733 ;; This function is called by:
  3734 ;;		_efgtoa
  3735 ;; This function uses a non-reentrant model
  3736 ;;
  3737                           
  3738                           	psect	text12
  3739   002960                     __ptext12:
  3740                           	callstack 0
  3741   002960                     _floorf:
  3742                           	callstack 24
  3743   002960  C0DD  F089         	movff	floorf@F521,floorf@u
  3744   002964  C0DE  F08A         	movff	floorf@F521+1,floorf@u+1
  3745   002968  C0DF  F08B         	movff	floorf@F521+2,floorf@u+2
  3746   00296C  C0E0  F08C         	movff	floorf@F521+3,floorf@u+3
  3747   002970  C079  F089         	movff	floorf@x,floorf@u
  3748   002974  C07A  F08A         	movff	floorf@x+1,floorf@u+1
  3749   002978  C07B  F08B         	movff	floorf@x+2,floorf@u+2
  3750   00297C  C07C  F08C         	movff	floorf@x+3,floorf@u+3
  3751   002980  0E81               	movlw	129
  3752   002982  0100               	movlb	0	; () banked
  3753   002984  6F7D               	movwf	??_floorf& (0+255),b
  3754   002986  0EFF               	movlw	255
  3755   002988  6F7E               	movwf	(??_floorf+1)& (0+255),b
  3756   00298A  C089  F07F         	movff	floorf@u,??_floorf+2
  3757   00298E  C08A  F080         	movff	floorf@u+1,??_floorf+3
  3758   002992  C08B  F081         	movff	floorf@u+2,??_floorf+4
  3759   002996  C08C  F082         	movff	floorf@u+3,??_floorf+5
  3760   00299A  0E18               	movlw	24
  3761   00299C  EFD5  F014         	goto	u6060
  3762   0029A0                     u6065:
  3763   0029A0  90D8               	bcf	status,0,c
  3764   0029A2  3382               	rrcf	(??_floorf+5)& (0+255),f,b
  3765   0029A4  3381               	rrcf	(??_floorf+4)& (0+255),f,b
  3766   0029A6  3380               	rrcf	(??_floorf+3)& (0+255),f,b
  3767   0029A8  337F               	rrcf	(??_floorf+2)& (0+255),f,b
  3768   0029AA                     u6060:
  3769   0029AA  2EE8               	decfsz	wreg,f,c
  3770   0029AC  EFD0  F014         	goto	u6065
  3771   0029B0  517F               	movf	(??_floorf+2)& (0+255),w,b
  3772   0029B2  257D               	addwf	??_floorf& (0+255),w,b
  3773   0029B4  6F87               	movwf	floorf@e& (0+255),b
  3774   0029B6  0E00               	movlw	0
  3775   0029B8  217E               	addwfc	(??_floorf+1)& (0+255),w,b
  3776   0029BA  6F88               	movwf	(floorf@e+1)& (0+255),b
  3777   0029BC  BF88               	btfsc	(floorf@e+1)& (0+255),7,b
  3778   0029BE  EFEA  F014         	goto	u6071
  3779   0029C2  5188               	movf	(floorf@e+1)& (0+255),w,b
  3780   0029C4  E109               	bnz	u6070
  3781   0029C6  0E17               	movlw	23
  3782   0029C8  5D87               	subwf	floorf@e& (0+255),w,b
  3783   0029CA  A0D8               	btfss	status,0,c
  3784   0029CC  EFEA  F014         	goto	u6071
  3785   0029D0  EFEC  F014         	goto	u6070
  3786   0029D4                     u6071:
  3787   0029D4  EFF6  F014         	goto	l5257
  3788   0029D8                     u6070:
  3789   0029D8                     l5255:
  3790                           
  3791                           ; BSR set to: 0
  3792   0029D8  C079  F079         	movff	floorf@x,?_floorf
  3793   0029DC  C07A  F07A         	movff	floorf@x+1,?_floorf+1
  3794   0029E0  C07B  F07B         	movff	floorf@x+2,?_floorf+2
  3795   0029E4  C07C  F07C         	movff	floorf@x+3,?_floorf+3
  3796   0029E8  EFBA  F015         	goto	l976
  3797   0029EC                     l5257:
  3798                           
  3799                           ; BSR set to: 0
  3800   0029EC  BF88               	btfsc	(floorf@e+1)& (0+255),7,b
  3801   0029EE  EFFB  F014         	goto	u6081
  3802   0029F2  EFFD  F014         	goto	u6080
  3803   0029F6                     u6081:
  3804   0029F6  EF6E  F015         	goto	l5267
  3805   0029FA                     u6080:
  3806   0029FA                     
  3807                           ; BSR set to: 0
  3808   0029FA  C087  F07D         	movff	floorf@e,??_floorf
  3809   0029FE  0EFF               	movlw	255
  3810   002A00  6F7E               	movwf	(??_floorf+1)& (0+255),b
  3811   002A02  0EFF               	movlw	255
  3812   002A04  6F7F               	movwf	(??_floorf+2)& (0+255),b
  3813   002A06  0E7F               	movlw	127
  3814   002A08  6F80               	movwf	(??_floorf+3)& (0+255),b
  3815   002A0A  0E00               	movlw	0
  3816   002A0C  6F81               	movwf	(??_floorf+4)& (0+255),b
  3817   002A0E                     u6095:
  3818   002A0E  677D               	tstfsz	??_floorf& (0+255),b
  3819   002A10  EF0C  F015         	goto	u6096
  3820   002A14  EF14  F015         	goto	u6097
  3821   002A18                     u6096:
  3822   002A18  3581               	rlcf	(??_floorf+4)& (0+255),w,b
  3823   002A1A  3381               	rrcf	(??_floorf+4)& (0+255),f,b
  3824   002A1C  3380               	rrcf	(??_floorf+3)& (0+255),f,b
  3825   002A1E  337F               	rrcf	(??_floorf+2)& (0+255),f,b
  3826   002A20  337E               	rrcf	(??_floorf+1)& (0+255),f,b
  3827   002A22  2F7D               	decfsz	??_floorf& (0+255),f,b
  3828   002A24  EF07  F015         	goto	u6095
  3829   002A28                     u6097:
  3830   002A28  C07E  F083         	movff	??_floorf+1,floorf@m
  3831   002A2C  C07F  F084         	movff	??_floorf+2,floorf@m+1
  3832   002A30  C080  F085         	movff	??_floorf+3,floorf@m+2
  3833   002A34  C081  F086         	movff	??_floorf+4,floorf@m+3
  3834   002A38  0100               	movlb	0	; () banked
  3835   002A3A  5183               	movf	floorf@m& (0+255),w,b
  3836   002A3C  1589               	andwf	floorf@u& (0+255),w,b
  3837   002A3E  6F7D               	movwf	??_floorf& (0+255),b
  3838   002A40  5184               	movf	(floorf@m+1)& (0+255),w,b
  3839   002A42  158A               	andwf	(floorf@u+1)& (0+255),w,b
  3840   002A44  6F7E               	movwf	(??_floorf+1)& (0+255),b
  3841   002A46  5185               	movf	(floorf@m+2)& (0+255),w,b
  3842   002A48  158B               	andwf	(floorf@u+2)& (0+255),w,b
  3843   002A4A  6F7F               	movwf	(??_floorf+2)& (0+255),b
  3844   002A4C  5186               	movf	(floorf@m+3)& (0+255),w,b
  3845   002A4E  158C               	andwf	(floorf@u+3)& (0+255),w,b
  3846   002A50  6F80               	movwf	(??_floorf+3)& (0+255),b
  3847   002A52  517D               	movf	??_floorf& (0+255),w,b
  3848   002A54  117E               	iorwf	(??_floorf+1)& (0+255),w,b
  3849   002A56  117F               	iorwf	(??_floorf+2)& (0+255),w,b
  3850   002A58  1180               	iorwf	(??_floorf+3)& (0+255),w,b
  3851   002A5A  A4D8               	btfss	status,2,c
  3852   002A5C  EF32  F015         	goto	u6101
  3853   002A60  EF34  F015         	goto	u6100
  3854   002A64                     u6101:
  3855   002A64  EF36  F015         	goto	l5263
  3856   002A68                     u6100:
  3857   002A68  EFEC  F014         	goto	l5255
  3858   002A6C                     l5263:
  3859                           
  3860                           ; BSR set to: 0
  3861   002A6C  C089  F07D         	movff	floorf@u,??_floorf
  3862   002A70  C08A  F07E         	movff	floorf@u+1,??_floorf+1
  3863   002A74  C08B  F07F         	movff	floorf@u+2,??_floorf+2
  3864   002A78  C08C  F080         	movff	floorf@u+3,??_floorf+3
  3865   002A7C  0E20               	movlw	32
  3866   002A7E  EF46  F015         	goto	u6110
  3867   002A82                     u6115:
  3868   002A82  90D8               	bcf	status,0,c
  3869   002A84  3380               	rrcf	(??_floorf+3)& (0+255),f,b
  3870   002A86  337F               	rrcf	(??_floorf+2)& (0+255),f,b
  3871   002A88  337E               	rrcf	(??_floorf+1)& (0+255),f,b
  3872   002A8A  337D               	rrcf	??_floorf& (0+255),f,b
  3873   002A8C                     u6110:
  3874   002A8C  2EE8               	decfsz	wreg,f,c
  3875   002A8E  EF41  F015         	goto	u6115
  3876   002A92  517D               	movf	??_floorf& (0+255),w,b
  3877   002A94  117E               	iorwf	(??_floorf+1)& (0+255),w,b
  3878   002A96  117F               	iorwf	(??_floorf+2)& (0+255),w,b
  3879   002A98  1180               	iorwf	(??_floorf+3)& (0+255),w,b
  3880   002A9A  B4D8               	btfsc	status,2,c
  3881   002A9C  EF52  F015         	goto	u6121
  3882   002AA0  EF54  F015         	goto	u6120
  3883   002AA4                     u6121:
  3884   002AA4  EF5C  F015         	goto	l979
  3885   002AA8                     u6120:
  3886   002AA8                     
  3887                           ; BSR set to: 0
  3888   002AA8  5183               	movf	floorf@m& (0+255),w,b
  3889   002AAA  2789               	addwf	floorf@u& (0+255),f,b
  3890   002AAC  5184               	movf	(floorf@m+1)& (0+255),w,b
  3891   002AAE  238A               	addwfc	(floorf@u+1)& (0+255),f,b
  3892   002AB0  5185               	movf	(floorf@m+2)& (0+255),w,b
  3893   002AB2  238B               	addwfc	(floorf@u+2)& (0+255),f,b
  3894   002AB4  5186               	movf	(floorf@m+3)& (0+255),w,b
  3895   002AB6  238C               	addwfc	(floorf@u+3)& (0+255),f,b
  3896   002AB8                     l979:
  3897                           
  3898                           ; BSR set to: 0
  3899   002AB8  1D83               	comf	floorf@m& (0+255),w,b
  3900   002ABA  6F7D               	movwf	??_floorf& (0+255),b
  3901   002ABC  1D84               	comf	(floorf@m+1)& (0+255),w,b
  3902   002ABE  6F7E               	movwf	(??_floorf+1)& (0+255),b
  3903   002AC0  1D85               	comf	(floorf@m+2)& (0+255),w,b
  3904   002AC2  6F7F               	movwf	(??_floorf+2)& (0+255),b
  3905   002AC4  1D86               	comf	(floorf@m+3)& (0+255),w,b
  3906   002AC6  6F80               	movwf	(??_floorf+3)& (0+255),b
  3907   002AC8  517D               	movf	??_floorf& (0+255),w,b
  3908   002ACA  1789               	andwf	floorf@u& (0+255),f,b
  3909   002ACC  517E               	movf	(??_floorf+1)& (0+255),w,b
  3910   002ACE  178A               	andwf	(floorf@u+1)& (0+255),f,b
  3911   002AD0  517F               	movf	(??_floorf+2)& (0+255),w,b
  3912   002AD2  178B               	andwf	(floorf@u+2)& (0+255),f,b
  3913   002AD4  5180               	movf	(??_floorf+3)& (0+255),w,b
  3914   002AD6  178C               	andwf	(floorf@u+3)& (0+255),f,b
  3915   002AD8  EFB2  F015         	goto	l5275
  3916   002ADC                     l5267:
  3917                           
  3918                           ; BSR set to: 0
  3919   002ADC  C089  F07D         	movff	floorf@u,??_floorf
  3920   002AE0  C08A  F07E         	movff	floorf@u+1,??_floorf+1
  3921   002AE4  C08B  F07F         	movff	floorf@u+2,??_floorf+2
  3922   002AE8  C08C  F080         	movff	floorf@u+3,??_floorf+3
  3923   002AEC  0E20               	movlw	32
  3924   002AEE  EF7E  F015         	goto	u6130
  3925   002AF2                     u6135:
  3926   002AF2  90D8               	bcf	status,0,c
  3927   002AF4  3380               	rrcf	(??_floorf+3)& (0+255),f,b
  3928   002AF6  337F               	rrcf	(??_floorf+2)& (0+255),f,b
  3929   002AF8  337E               	rrcf	(??_floorf+1)& (0+255),f,b
  3930   002AFA  337D               	rrcf	??_floorf& (0+255),f,b
  3931   002AFC                     u6130:
  3932   002AFC  2EE8               	decfsz	wreg,f,c
  3933   002AFE  EF79  F015         	goto	u6135
  3934   002B02  517D               	movf	??_floorf& (0+255),w,b
  3935   002B04  117E               	iorwf	(??_floorf+1)& (0+255),w,b
  3936   002B06  117F               	iorwf	(??_floorf+2)& (0+255),w,b
  3937   002B08  1180               	iorwf	(??_floorf+3)& (0+255),w,b
  3938   002B0A  A4D8               	btfss	status,2,c
  3939   002B0C  EF8A  F015         	goto	u6141
  3940   002B10  EF8C  F015         	goto	u6140
  3941   002B14                     u6141:
  3942   002B14  EF96  F015         	goto	l5271
  3943   002B18                     u6140:
  3944   002B18                     
  3945                           ; BSR set to: 0
  3946   002B18  0E00               	movlw	0
  3947   002B1A  6F89               	movwf	floorf@u& (0+255),b
  3948   002B1C  0E00               	movlw	0
  3949   002B1E  6F8A               	movwf	(floorf@u+1)& (0+255),b
  3950   002B20  0E00               	movlw	0
  3951   002B22  6F8B               	movwf	(floorf@u+2)& (0+255),b
  3952   002B24  0E00               	movlw	0
  3953   002B26  6F8C               	movwf	(floorf@u+3)& (0+255),b
  3954   002B28  EFB2  F015         	goto	l5275
  3955   002B2C                     l5271:
  3956                           
  3957                           ; BSR set to: 0
  3958   002B2C  90D8               	bcf	status,0,c
  3959   002B2E  3589               	rlcf	floorf@u& (0+255),w,b
  3960   002B30  6F7D               	movwf	??_floorf& (0+255),b
  3961   002B32  358A               	rlcf	(floorf@u+1)& (0+255),w,b
  3962   002B34  6F7E               	movwf	(??_floorf+1)& (0+255),b
  3963   002B36  358B               	rlcf	(floorf@u+2)& (0+255),w,b
  3964   002B38  6F7F               	movwf	(??_floorf+2)& (0+255),b
  3965   002B3A  358C               	rlcf	(floorf@u+3)& (0+255),w,b
  3966   002B3C  6F80               	movwf	(??_floorf+3)& (0+255),b
  3967   002B3E  517D               	movf	??_floorf& (0+255),w,b
  3968   002B40  117E               	iorwf	(??_floorf+1)& (0+255),w,b
  3969   002B42  117F               	iorwf	(??_floorf+2)& (0+255),w,b
  3970   002B44  1180               	iorwf	(??_floorf+3)& (0+255),w,b
  3971   002B46  B4D8               	btfsc	status,2,c
  3972   002B48  EFA8  F015         	goto	u6151
  3973   002B4C  EFAA  F015         	goto	u6150
  3974   002B50                     u6151:
  3975   002B50  EFB2  F015         	goto	l5275
  3976   002B54                     u6150:
  3977   002B54                     
  3978                           ; BSR set to: 0
  3979   002B54  0E00               	movlw	0
  3980   002B56  6F89               	movwf	floorf@u& (0+255),b
  3981   002B58  0E00               	movlw	0
  3982   002B5A  6F8A               	movwf	(floorf@u+1)& (0+255),b
  3983   002B5C  0E80               	movlw	128
  3984   002B5E  6F8B               	movwf	(floorf@u+2)& (0+255),b
  3985   002B60  0EBF               	movlw	191
  3986   002B62  6F8C               	movwf	(floorf@u+3)& (0+255),b
  3987   002B64                     l5275:
  3988                           
  3989                           ; BSR set to: 0
  3990   002B64  C089  F079         	movff	floorf@u,?_floorf
  3991   002B68  C08A  F07A         	movff	floorf@u+1,?_floorf+1
  3992   002B6C  C08B  F07B         	movff	floorf@u+2,?_floorf+2
  3993   002B70  C08C  F07C         	movff	floorf@u+3,?_floorf+3
  3994   002B74                     l976:
  3995                           
  3996                           ; BSR set to: 0
  3997   002B74  0012               	return		;funcret
  3998   002B76                     __end_of_floorf:
  3999                           	callstack 0
  4000                           
  4001 ;; *************** function ___fpclassifyf *****************
  4002 ;; Defined at:
  4003 ;;		line 4 in file "C:\Program Files\Microchip\xc8\v2.45\pic\sources\c99\common\__fpclassifyf.c"
  4004 ;; Parameters:    Size  Location     Type
  4005 ;;  x               4    0[BANK0 ] float 
  4006 ;; Auto vars:     Size  Location     Type
  4007 ;;  u               4   10[BANK0 ] struct .
  4008 ;;  e               2    8[BANK0 ] int 
  4009 ;; Return value:  Size  Location     Type
  4010 ;;                  2    0[BANK0 ] int 
  4011 ;; Registers used:
  4012 ;;		wreg, status,2, status,0
  4013 ;; Tracked objects:
  4014 ;;		On entry : 0/0
  4015 ;;		On exit  : 0/0
  4016 ;;		Unchanged: 0/0
  4017 ;; Data sizes:     COMRAM   BANK0   BANK1   BANK2   BANK3   BANK4   BANK5   BANK6   BANK7
  4018 ;;      Params:         0       4       0       0       0       0       0       0       0
  4019 ;;      Locals:         0       6       0       0       0       0       0       0       0
  4020 ;;      Temps:          0       4       0       0       0       0       0       0       0
  4021 ;;      Totals:         0      14       0       0       0       0       0       0       0
  4022 ;;Total ram usage:       14 bytes
  4023 ;; Hardware stack levels used: 1
  4024 ;; Hardware stack levels required when called: 2
  4025 ;; This function calls:
  4026 ;;		Nothing
  4027 ;; This function is called by:
  4028 ;;		_efgtoa
  4029 ;; This function uses a non-reentrant model
  4030 ;;
  4031                           
  4032                           	psect	text13
  4033   00303E                     __ptext13:
  4034                           	callstack 0
  4035   00303E                     ___fpclassifyf:
  4036                           	callstack 24
  4037   00303E  C02E  F06A         	movff	___fpclassifyf@F465,___fpclassifyf@u
  4038   003042  C02F  F06B         	movff	___fpclassifyf@F465+1,___fpclassifyf@u+1
  4039   003046  C030  F06C         	movff	___fpclassifyf@F465+2,___fpclassifyf@u+2
  4040   00304A  C031  F06D         	movff	___fpclassifyf@F465+3,___fpclassifyf@u+3
  4041   00304E  C060  F06A         	movff	___fpclassifyf@x,___fpclassifyf@u
  4042   003052  C061  F06B         	movff	___fpclassifyf@x+1,___fpclassifyf@u+1
  4043   003056  C062  F06C         	movff	___fpclassifyf@x+2,___fpclassifyf@u+2
  4044   00305A  C063  F06D         	movff	___fpclassifyf@x+3,___fpclassifyf@u+3
  4045   00305E  C06A  F064         	movff	___fpclassifyf@u,??___fpclassifyf
  4046   003062  C06B  F065         	movff	___fpclassifyf@u+1,??___fpclassifyf+1
  4047   003066  C06C  F066         	movff	___fpclassifyf@u+2,??___fpclassifyf+2
  4048   00306A  C06D  F067         	movff	___fpclassifyf@u+3,??___fpclassifyf+3
  4049   00306E  0E18               	movlw	24
  4050   003070  EF40  F018         	goto	u5970
  4051   003074                     u5975:
  4052   003074  0100               	movlb	0	; () banked
  4053   003076  90D8               	bcf	status,0,c
  4054   003078  3367               	rrcf	(??___fpclassifyf+3)& (0+255),f,b
  4055   00307A  3366               	rrcf	(??___fpclassifyf+2)& (0+255),f,b
  4056   00307C  3365               	rrcf	(??___fpclassifyf+1)& (0+255),f,b
  4057   00307E  3364               	rrcf	??___fpclassifyf& (0+255),f,b
  4058   003080                     u5970:
  4059   003080  2EE8               	decfsz	wreg,f,c
  4060   003082  EF3A  F018         	goto	u5975
  4061   003086  5164               	movf	??___fpclassifyf& (0+255),w,b
  4062   003088  6F68               	movwf	___fpclassifyf@e& (0+255),b
  4063   00308A  6B69               	clrf	(___fpclassifyf@e+1)& (0+255),b
  4064   00308C  5168               	movf	___fpclassifyf@e& (0+255),w,b
  4065   00308E  1169               	iorwf	(___fpclassifyf@e+1)& (0+255),w,b
  4066   003090  A4D8               	btfss	status,2,c
  4067   003092  EF4D  F018         	goto	u5981
  4068   003096  EF4F  F018         	goto	u5980
  4069   00309A                     u5981:
  4070   00309A  EF6F  F018         	goto	l5229
  4071   00309E                     u5980:
  4072   00309E                     
  4073                           ; BSR set to: 0
  4074   00309E  90D8               	bcf	status,0,c
  4075   0030A0  356A               	rlcf	___fpclassifyf@u& (0+255),w,b
  4076   0030A2  6F64               	movwf	??___fpclassifyf& (0+255),b
  4077   0030A4  356B               	rlcf	(___fpclassifyf@u+1)& (0+255),w,b
  4078   0030A6  6F65               	movwf	(??___fpclassifyf+1)& (0+255),b
  4079   0030A8  356C               	rlcf	(___fpclassifyf@u+2)& (0+255),w,b
  4080   0030AA  6F66               	movwf	(??___fpclassifyf+2)& (0+255),b
  4081   0030AC  356D               	rlcf	(___fpclassifyf@u+3)& (0+255),w,b
  4082   0030AE  6F67               	movwf	(??___fpclassifyf+3)& (0+255),b
  4083   0030B0  5164               	movf	??___fpclassifyf& (0+255),w,b
  4084   0030B2  1165               	iorwf	(??___fpclassifyf+1)& (0+255),w,b
  4085   0030B4  1166               	iorwf	(??___fpclassifyf+2)& (0+255),w,b
  4086   0030B6  1167               	iorwf	(??___fpclassifyf+3)& (0+255),w,b
  4087   0030B8  A4D8               	btfss	status,2,c
  4088   0030BA  EF61  F018         	goto	u5991
  4089   0030BE  EF63  F018         	goto	u5990
  4090   0030C2                     u5991:
  4091   0030C2  EF69  F018         	goto	l5225
  4092   0030C6                     u5990:
  4093   0030C6                     
  4094                           ; BSR set to: 0
  4095   0030C6  0E00               	movlw	0
  4096   0030C8  6F61               	movwf	(?___fpclassifyf+1)& (0+255),b
  4097   0030CA  0E02               	movlw	2
  4098   0030CC  6F60               	movwf	?___fpclassifyf& (0+255),b
  4099   0030CE  EF9E  F018         	goto	l969
  4100   0030D2                     l5225:
  4101                           
  4102                           ; BSR set to: 0
  4103   0030D2  0E00               	movlw	0
  4104   0030D4  6F61               	movwf	(?___fpclassifyf+1)& (0+255),b
  4105   0030D6  0E03               	movlw	3
  4106   0030D8  6F60               	movwf	?___fpclassifyf& (0+255),b
  4107   0030DA  EF9E  F018         	goto	l969
  4108   0030DE                     l5229:
  4109                           
  4110                           ; BSR set to: 0
  4111   0030DE  2968               	incf	___fpclassifyf@e& (0+255),w,b
  4112   0030E0  1169               	iorwf	(___fpclassifyf@e+1)& (0+255),w,b
  4113   0030E2  A4D8               	btfss	status,2,c
  4114   0030E4  EF76  F018         	goto	u6001
  4115   0030E8  EF78  F018         	goto	u6000
  4116   0030EC                     u6001:
  4117   0030EC  EF9A  F018         	goto	l5235
  4118   0030F0                     u6000:
  4119   0030F0                     
  4120                           ; BSR set to: 0
  4121   0030F0  C06A  F064         	movff	___fpclassifyf@u,??___fpclassifyf
  4122   0030F4  C06B  F065         	movff	___fpclassifyf@u+1,??___fpclassifyf+1
  4123   0030F8  C06C  F066         	movff	___fpclassifyf@u+2,??___fpclassifyf+2
  4124   0030FC  C06D  F067         	movff	___fpclassifyf@u+3,??___fpclassifyf+3
  4125   003100  0E09               	movlw	9
  4126   003102                     u6015:
  4127   003102  90D8               	bcf	status,0,c
  4128   003104  3764               	rlcf	??___fpclassifyf& (0+255),f,b
  4129   003106  3765               	rlcf	(??___fpclassifyf+1)& (0+255),f,b
  4130   003108  3766               	rlcf	(??___fpclassifyf+2)& (0+255),f,b
  4131   00310A  3767               	rlcf	(??___fpclassifyf+3)& (0+255),f,b
  4132   00310C  2EE8               	decfsz	wreg,f,c
  4133   00310E  EF81  F018         	goto	u6015
  4134   003112  5164               	movf	??___fpclassifyf& (0+255),w,b
  4135   003114  1165               	iorwf	(??___fpclassifyf+1)& (0+255),w,b
  4136   003116  1166               	iorwf	(??___fpclassifyf+2)& (0+255),w,b
  4137   003118  1167               	iorwf	(??___fpclassifyf+3)& (0+255),w,b
  4138   00311A  B4D8               	btfsc	status,2,c
  4139   00311C  EF92  F018         	goto	u6021
  4140   003120  EF95  F018         	goto	u6020
  4141   003124                     u6021:
  4142   003124  0E01               	movlw	1
  4143   003126  EF96  F018         	goto	u6030
  4144   00312A                     u6020:
  4145   00312A  0E00               	movlw	0
  4146   00312C                     u6030:
  4147   00312C  6F60               	movwf	?___fpclassifyf& (0+255),b
  4148   00312E  6B61               	clrf	(?___fpclassifyf+1)& (0+255),b
  4149   003130  EF9E  F018         	goto	l969
  4150   003134                     l5235:
  4151                           
  4152                           ; BSR set to: 0
  4153   003134  0E00               	movlw	0
  4154   003136  6F61               	movwf	(?___fpclassifyf+1)& (0+255),b
  4155   003138  0E04               	movlw	4
  4156   00313A  6F60               	movwf	?___fpclassifyf& (0+255),b
  4157   00313C                     l969:
  4158                           
  4159                           ; BSR set to: 0
  4160   00313C  0012               	return		;funcret
  4161   00313E                     __end_of___fpclassifyf:
  4162                           	callstack 0
  4163                           
  4164 ;; *************** function ___fltol *****************
  4165 ;; Defined at:
  4166 ;;		line 43 in file "C:\Program Files\Microchip\xc8\v2.45\pic\sources\c99\common\fltol.c"
  4167 ;; Parameters:    Size  Location     Type
  4168 ;;  f1              4    0[BANK0 ] int 
  4169 ;; Auto vars:     Size  Location     Type
  4170 ;;  exp1            1   44[COMRAM] unsigned char 
  4171 ;;  sign1           1   43[COMRAM] unsigned char 
  4172 ;; Return value:  Size  Location     Type
  4173 ;;                  4    0[BANK0 ] long 
  4174 ;; Registers used:
  4175 ;;		wreg, status,2, status,0
  4176 ;; Tracked objects:
  4177 ;;		On entry : 0/0
  4178 ;;		On exit  : 0/0
  4179 ;;		Unchanged: 0/0
  4180 ;; Data sizes:     COMRAM   BANK0   BANK1   BANK2   BANK3   BANK4   BANK5   BANK6   BANK7
  4181 ;;      Params:         0       4       0       0       0       0       0       0       0
  4182 ;;      Locals:         2       0       0       0       0       0       0       0       0
  4183 ;;      Temps:          0       4       0       0       0       0       0       0       0
  4184 ;;      Totals:         2       8       0       0       0       0       0       0       0
  4185 ;;Total ram usage:       10 bytes
  4186 ;; Hardware stack levels used: 1
  4187 ;; Hardware stack levels required when called: 2
  4188 ;; This function calls:
  4189 ;;		Nothing
  4190 ;; This function is called by:
  4191 ;;		_efgtoa
  4192 ;; This function uses a non-reentrant model
  4193 ;;
  4194                           
  4195                           	psect	text14
  4196   002D2A                     __ptext14:
  4197                           	callstack 0
  4198   002D2A                     ___fltol:
  4199                           	callstack 24
  4200   002D2A  0100               	movlb	0	; () banked
  4201   002D2C  3562               	rlcf	(___fltol@f1+2)& (0+255),w,b
  4202   002D2E  3563               	rlcf	(___fltol@f1+3)& (0+255),w,b
  4203   002D30  6E2D               	movwf	___fltol@exp1^0,c
  4204   002D32  502D               	movf	___fltol@exp1^0,w,c
  4205   002D34  A4D8               	btfss	status,2,c
  4206   002D36  EF9F  F016         	goto	u5881
  4207   002D3A  EFA1  F016         	goto	u5880
  4208   002D3E                     u5881:
  4209   002D3E  EFAB  F016         	goto	l5167
  4210   002D42                     u5880:
  4211   002D42                     l5163:
  4212                           
  4213                           ; BSR set to: 0
  4214   002D42  0E00               	movlw	0
  4215   002D44  6F60               	movwf	?___fltol& (0+255),b
  4216   002D46  0E00               	movlw	0
  4217   002D48  6F61               	movwf	(?___fltol+1)& (0+255),b
  4218   002D4A  0E00               	movlw	0
  4219   002D4C  6F62               	movwf	(?___fltol+2)& (0+255),b
  4220   002D4E  0E00               	movlw	0
  4221   002D50  6F63               	movwf	(?___fltol+3)& (0+255),b
  4222   002D52  EF18  F017         	goto	l456
  4223   002D56                     l5167:
  4224                           
  4225                           ; BSR set to: 0
  4226   002D56  C060  F064         	movff	___fltol@f1,??___fltol
  4227   002D5A  C061  F065         	movff	___fltol@f1+1,??___fltol+1
  4228   002D5E  C062  F066         	movff	___fltol@f1+2,??___fltol+2
  4229   002D62  C063  F067         	movff	___fltol@f1+3,??___fltol+3
  4230   002D66  0E20               	movlw	32
  4231   002D68  EFBB  F016         	goto	u5890
  4232   002D6C                     u5895:
  4233   002D6C  90D8               	bcf	status,0,c
  4234   002D6E  3367               	rrcf	(??___fltol+3)& (0+255),f,b
  4235   002D70  3366               	rrcf	(??___fltol+2)& (0+255),f,b
  4236   002D72  3365               	rrcf	(??___fltol+1)& (0+255),f,b
  4237   002D74  3364               	rrcf	??___fltol& (0+255),f,b
  4238   002D76                     u5890:
  4239   002D76  2EE8               	decfsz	wreg,f,c
  4240   002D78  EFB6  F016         	goto	u5895
  4241   002D7C  5164               	movf	??___fltol& (0+255),w,b
  4242   002D7E  6E2C               	movwf	___fltol@sign1^0,c
  4243   002D80                     
  4244                           ; BSR set to: 0
  4245   002D80  8F62               	bsf	(___fltol@f1+2)& (0+255),7,b
  4246   002D82                     
  4247                           ; BSR set to: 0
  4248   002D82  0EFF               	movlw	255
  4249   002D84  1760               	andwf	___fltol@f1& (0+255),f,b
  4250   002D86  0EFF               	movlw	255
  4251   002D88  1761               	andwf	(___fltol@f1+1)& (0+255),f,b
  4252   002D8A  0EFF               	movlw	255
  4253   002D8C  1762               	andwf	(___fltol@f1+2)& (0+255),f,b
  4254   002D8E  0E00               	movlw	0
  4255   002D90  1763               	andwf	(___fltol@f1+3)& (0+255),f,b
  4256   002D92                     
  4257                           ; BSR set to: 0
  4258   002D92  0E96               	movlw	150
  4259   002D94  5E2D               	subwf	___fltol@exp1^0,f,c
  4260   002D96                     
  4261                           ; BSR set to: 0
  4262   002D96  BE2D               	btfsc	___fltol@exp1^0,7,c
  4263   002D98  EFD2  F016         	goto	u5900
  4264   002D9C  EFD0  F016         	goto	u5901
  4265   002DA0                     u5901:
  4266   002DA0  EFE8  F016         	goto	l5187
  4267   002DA4                     u5900:
  4268   002DA4                     
  4269                           ; BSR set to: 0
  4270   002DA4  502D               	movf	___fltol@exp1^0,w,c
  4271   002DA6  0A80               	xorlw	128
  4272   002DA8  0F97               	addlw	151
  4273   002DAA  B0D8               	btfsc	status,0,c
  4274   002DAC  EFDA  F016         	goto	u5911
  4275   002DB0  EFDC  F016         	goto	u5910
  4276   002DB4                     u5911:
  4277   002DB4  EFDE  F016         	goto	l5183
  4278   002DB8                     u5910:
  4279   002DB8  EFA1  F016         	goto	l5163
  4280   002DBC                     l5183:
  4281                           
  4282                           ; BSR set to: 0
  4283   002DBC  90D8               	bcf	status,0,c
  4284   002DBE  3363               	rrcf	(___fltol@f1+3)& (0+255),f,b
  4285   002DC0  3362               	rrcf	(___fltol@f1+2)& (0+255),f,b
  4286   002DC2  3361               	rrcf	(___fltol@f1+1)& (0+255),f,b
  4287   002DC4  3360               	rrcf	___fltol@f1& (0+255),f,b
  4288   002DC6                     
  4289                           ; BSR set to: 0
  4290   002DC6  3E2D               	incfsz	___fltol@exp1^0,f,c
  4291   002DC8  EFDE  F016         	goto	l5183
  4292   002DCC  EF00  F017         	goto	l5197
  4293   002DD0                     l5187:
  4294                           
  4295                           ; BSR set to: 0
  4296   002DD0  0E1F               	movlw	31
  4297   002DD2  642D               	cpfsgt	___fltol@exp1^0,c
  4298   002DD4  EFEE  F016         	goto	u5921
  4299   002DD8  EFF0  F016         	goto	u5920
  4300   002DDC                     u5921:
  4301   002DDC  EFF8  F016         	goto	l5195
  4302   002DE0                     u5920:
  4303   002DE0  EFA1  F016         	goto	l5163
  4304   002DE4                     l5193:
  4305                           
  4306                           ; BSR set to: 0
  4307   002DE4  90D8               	bcf	status,0,c
  4308   002DE6  3760               	rlcf	___fltol@f1& (0+255),f,b
  4309   002DE8  3761               	rlcf	(___fltol@f1+1)& (0+255),f,b
  4310   002DEA  3762               	rlcf	(___fltol@f1+2)& (0+255),f,b
  4311   002DEC  3763               	rlcf	(___fltol@f1+3)& (0+255),f,b
  4312   002DEE  062D               	decf	___fltol@exp1^0,f,c
  4313   002DF0                     l5195:
  4314                           
  4315                           ; BSR set to: 0
  4316   002DF0  502D               	movf	___fltol@exp1^0,w,c
  4317   002DF2  A4D8               	btfss	status,2,c
  4318   002DF4  EFFE  F016         	goto	u5931
  4319   002DF8  EF00  F017         	goto	u5930
  4320   002DFC                     u5931:
  4321   002DFC  EFF2  F016         	goto	l5193
  4322   002E00                     u5930:
  4323   002E00                     l5197:
  4324                           
  4325                           ; BSR set to: 0
  4326   002E00  502C               	movf	___fltol@sign1^0,w,c
  4327   002E02  B4D8               	btfsc	status,2,c
  4328   002E04  EF06  F017         	goto	u5941
  4329   002E08  EF08  F017         	goto	u5940
  4330   002E0C                     u5941:
  4331   002E0C  EF10  F017         	goto	l5201
  4332   002E10                     u5940:
  4333   002E10                     
  4334                           ; BSR set to: 0
  4335   002E10  1F63               	comf	(___fltol@f1+3)& (0+255),f,b
  4336   002E12  1F62               	comf	(___fltol@f1+2)& (0+255),f,b
  4337   002E14  1F61               	comf	(___fltol@f1+1)& (0+255),f,b
  4338   002E16  6D60               	negf	___fltol@f1& (0+255),b
  4339   002E18  0E00               	movlw	0
  4340   002E1A  2361               	addwfc	(___fltol@f1+1)& (0+255),f,b
  4341   002E1C  2362               	addwfc	(___fltol@f1+2)& (0+255),f,b
  4342   002E1E  2363               	addwfc	(___fltol@f1+3)& (0+255),f,b
  4343   002E20                     l5201:
  4344                           
  4345                           ; BSR set to: 0
  4346   002E20  C060  F060         	movff	___fltol@f1,?___fltol
  4347   002E24  C061  F061         	movff	___fltol@f1+1,?___fltol+1
  4348   002E28  C062  F062         	movff	___fltol@f1+2,?___fltol+2
  4349   002E2C  C063  F063         	movff	___fltol@f1+3,?___fltol+3
  4350   002E30                     l456:
  4351                           
  4352                           ; BSR set to: 0
  4353   002E30  0012               	return		;funcret
  4354   002E32                     __end_of___fltol:
  4355                           	callstack 0
  4356                           
  4357 ;; *************** function ___flsub *****************
  4358 ;; Defined at:
  4359 ;;		line 245 in file "C:\Program Files\Microchip\xc8\v2.45\pic\sources\c99\common\sprcadd.c"
  4360 ;; Parameters:    Size  Location     Type
  4361 ;;  b               4   25[BANK0 ] long 
  4362 ;;  a               4   29[BANK0 ] long 
  4363 ;; Auto vars:     Size  Location     Type
  4364 ;;		None
  4365 ;; Return value:  Size  Location     Type
  4366 ;;                  4   25[BANK0 ] long 
  4367 ;; Registers used:
  4368 ;;		wreg, status,2, status,0, cstack
  4369 ;; Tracked objects:
  4370 ;;		On entry : 0/0
  4371 ;;		On exit  : 0/0
  4372 ;;		Unchanged: 0/0
  4373 ;; Data sizes:     COMRAM   BANK0   BANK1   BANK2   BANK3   BANK4   BANK5   BANK6   BANK7
  4374 ;;      Params:         0       8       0       0       0       0       0       0       0
  4375 ;;      Locals:         0       0       0       0       0       0       0       0       0
  4376 ;;      Temps:          0       0       0       0       0       0       0       0       0
  4377 ;;      Totals:         0       8       0       0       0       0       0       0       0
  4378 ;;Total ram usage:        8 bytes
  4379 ;; Hardware stack levels used: 1
  4380 ;; Hardware stack levels required when called: 3
  4381 ;; This function calls:
  4382 ;;		___fladd
  4383 ;; This function is called by:
  4384 ;;		_efgtoa
  4385 ;; This function uses a non-reentrant model
  4386 ;;
  4387                           
  4388                           	psect	text15
  4389   003862                     __ptext15:
  4390                           	callstack 0
  4391   003862                     ___flsub:
  4392                           	callstack 23
  4393   003862  0E00               	movlw	0
  4394   003864  0100               	movlb	0	; () banked
  4395   003866  1B7D               	xorwf	___flsub@a& (0+255),f,b
  4396   003868  0E00               	movlw	0
  4397   00386A  1B7E               	xorwf	(___flsub@a+1)& (0+255),f,b
  4398   00386C  0E00               	movlw	0
  4399   00386E  1B7F               	xorwf	(___flsub@a+2)& (0+255),f,b
  4400   003870  0E80               	movlw	128
  4401   003872  1B80               	xorwf	(___flsub@a+3)& (0+255),f,b
  4402   003874                     
  4403                           ; BSR set to: 0
  4404   003874  C079  F060         	movff	___flsub@b,___fladd@b
  4405   003878  C07A  F061         	movff	___flsub@b+1,___fladd@b+1
  4406   00387C  C07B  F062         	movff	___flsub@b+2,___fladd@b+2
  4407   003880  C07C  F063         	movff	___flsub@b+3,___fladd@b+3
  4408   003884  C07D  F064         	movff	___flsub@a,___fladd@a
  4409   003888  C07E  F065         	movff	___flsub@a+1,___fladd@a+1
  4410   00388C  C07F  F066         	movff	___flsub@a+2,___fladd@a+2
  4411   003890  C080  F067         	movff	___flsub@a+3,___fladd@a+3
  4412   003894  EC07  F009         	call	___fladd	;wreg free
  4413   003898  C060  F079         	movff	?___fladd,?___flsub
  4414   00389C  C061  F07A         	movff	?___fladd+1,?___flsub+1
  4415   0038A0  C062  F07B         	movff	?___fladd+2,?___flsub+2
  4416   0038A4  C063  F07C         	movff	?___fladd+3,?___flsub+3
  4417   0038A8  0012               	return		;funcret
  4418   0038AA                     __end_of___flsub:
  4419                           	callstack 0
  4420                           
  4421 ;; *************** function ___fladd *****************
  4422 ;; Defined at:
  4423 ;;		line 10 in file "C:\Program Files\Microchip\xc8\v2.45\pic\sources\c99\common\sprcadd.c"
  4424 ;; Parameters:    Size  Location     Type
  4425 ;;  b               4    0[BANK0 ] long 
  4426 ;;  a               4    4[BANK0 ] long 
  4427 ;; Auto vars:     Size  Location     Type
  4428 ;;  grs             1   15[BANK0 ] unsigned char 
  4429 ;;  bexp            1   14[BANK0 ] unsigned char 
  4430 ;;  aexp            1   13[BANK0 ] unsigned char 
  4431 ;;  signs           1   12[BANK0 ] unsigned char 
  4432 ;; Return value:  Size  Location     Type
  4433 ;;                  4    0[BANK0 ] unsigned char 
  4434 ;; Registers used:
  4435 ;;		wreg, status,2, status,0
  4436 ;; Tracked objects:
  4437 ;;		On entry : 0/0
  4438 ;;		On exit  : 0/0
  4439 ;;		Unchanged: 0/0
  4440 ;; Data sizes:     COMRAM   BANK0   BANK1   BANK2   BANK3   BANK4   BANK5   BANK6   BANK7
  4441 ;;      Params:         0       8       0       0       0       0       0       0       0
  4442 ;;      Locals:         0       4       0       0       0       0       0       0       0
  4443 ;;      Temps:          0       4       0       0       0       0       0       0       0
  4444 ;;      Totals:         0      16       0       0       0       0       0       0       0
  4445 ;;Total ram usage:       16 bytes
  4446 ;; Hardware stack levels used: 1
  4447 ;; Hardware stack levels required when called: 2
  4448 ;; This function calls:
  4449 ;;		Nothing
  4450 ;; This function is called by:
  4451 ;;		___flsub
  4452 ;;		_efgtoa
  4453 ;; This function uses a non-reentrant model
  4454 ;;
  4455                           
  4456                           	psect	text16
  4457   00120E                     __ptext16:
  4458                           	callstack 0
  4459   00120E                     ___fladd:
  4460                           	callstack 23
  4461   00120E  0100               	movlb	0	; () banked
  4462   001210  5163               	movf	(___fladd@b+3)& (0+255),w,b
  4463   001212  0B80               	andlw	128
  4464   001214  6F6C               	movwf	___fladd@signs& (0+255),b
  4465   001216  5163               	movf	(___fladd@b+3)& (0+255),w,b
  4466   001218  2563               	addwf	(___fladd@b+3)& (0+255),w,b
  4467   00121A  6F6E               	movwf	___fladd@bexp& (0+255),b
  4468   00121C                     
  4469                           ; BSR set to: 0
  4470   00121C  AF62               	btfss	(___fladd@b+2)& (0+255),7,b
  4471   00121E  EF13  F009         	goto	u4971
  4472   001222  EF15  F009         	goto	u4970
  4473   001226                     u4971:
  4474   001226  EF16  F009         	goto	l4637
  4475   00122A                     u4970:
  4476   00122A                     
  4477                           ; BSR set to: 0
  4478   00122A  816E               	bsf	___fladd@bexp& (0+255),0,b
  4479   00122C                     l4637:
  4480                           
  4481                           ; BSR set to: 0
  4482   00122C  516E               	movf	___fladd@bexp& (0+255),w,b
  4483   00122E  B4D8               	btfsc	status,2,c
  4484   001230  EF1C  F009         	goto	u4981
  4485   001234  EF1E  F009         	goto	u4980
  4486   001238                     u4981:
  4487   001238  EF33  F009         	goto	l4647
  4488   00123C                     u4980:
  4489   00123C                     
  4490                           ; BSR set to: 0
  4491   00123C  296E               	incf	___fladd@bexp& (0+255),w,b
  4492   00123E  A4D8               	btfss	status,2,c
  4493   001240  EF24  F009         	goto	u4991
  4494   001244  EF26  F009         	goto	u4990
  4495   001248                     u4991:
  4496   001248  EF2E  F009         	goto	l4643
  4497   00124C                     u4990:
  4498   00124C                     
  4499                           ; BSR set to: 0
  4500   00124C  0E00               	movlw	0
  4501   00124E  6F60               	movwf	___fladd@b& (0+255),b
  4502   001250  0E00               	movlw	0
  4503   001252  6F61               	movwf	(___fladd@b+1)& (0+255),b
  4504   001254  0E00               	movlw	0
  4505   001256  6F62               	movwf	(___fladd@b+2)& (0+255),b
  4506   001258  0E00               	movlw	0
  4507   00125A  6F63               	movwf	(___fladd@b+3)& (0+255),b
  4508   00125C                     l4643:
  4509                           
  4510                           ; BSR set to: 0
  4511   00125C  8F62               	bsf	(___fladd@b+2)& (0+255),7,b
  4512   00125E                     
  4513                           ; BSR set to: 0
  4514   00125E  0E00               	movlw	0
  4515   001260  6F63               	movwf	(___fladd@b+3)& (0+255),b
  4516   001262  EF3B  F009         	goto	l4649
  4517   001266                     l4647:
  4518                           
  4519                           ; BSR set to: 0
  4520   001266  0E00               	movlw	0
  4521   001268  6F60               	movwf	___fladd@b& (0+255),b
  4522   00126A  0E00               	movlw	0
  4523   00126C  6F61               	movwf	(___fladd@b+1)& (0+255),b
  4524   00126E  0E00               	movlw	0
  4525   001270  6F62               	movwf	(___fladd@b+2)& (0+255),b
  4526   001272  0E00               	movlw	0
  4527   001274  6F63               	movwf	(___fladd@b+3)& (0+255),b
  4528   001276                     l4649:
  4529                           
  4530                           ; BSR set to: 0
  4531   001276  5167               	movf	(___fladd@a+3)& (0+255),w,b
  4532   001278  0B80               	andlw	128
  4533   00127A  6F6D               	movwf	___fladd@aexp& (0+255),b
  4534   00127C                     
  4535                           ; BSR set to: 0
  4536   00127C  516C               	movf	___fladd@signs& (0+255),w,b
  4537   00127E  196D               	xorwf	___fladd@aexp& (0+255),w,b
  4538   001280  B4D8               	btfsc	status,2,c
  4539   001282  EF45  F009         	goto	u5001
  4540   001286  EF47  F009         	goto	u5000
  4541   00128A                     u5001:
  4542   00128A  EF48  F009         	goto	l4655
  4543   00128E                     u5000:
  4544   00128E                     
  4545                           ; BSR set to: 0
  4546   00128E  8D6C               	bsf	___fladd@signs& (0+255),6,b
  4547   001290                     l4655:
  4548                           
  4549                           ; BSR set to: 0
  4550   001290  5167               	movf	(___fladd@a+3)& (0+255),w,b
  4551   001292  2567               	addwf	(___fladd@a+3)& (0+255),w,b
  4552   001294  6F6D               	movwf	___fladd@aexp& (0+255),b
  4553   001296                     
  4554                           ; BSR set to: 0
  4555   001296  AF66               	btfss	(___fladd@a+2)& (0+255),7,b
  4556   001298  EF50  F009         	goto	u5011
  4557   00129C  EF52  F009         	goto	u5010
  4558   0012A0                     u5011:
  4559   0012A0  EF53  F009         	goto	l4661
  4560   0012A4                     u5010:
  4561   0012A4                     
  4562                           ; BSR set to: 0
  4563   0012A4  816D               	bsf	___fladd@aexp& (0+255),0,b
  4564   0012A6                     l4661:
  4565                           
  4566                           ; BSR set to: 0
  4567   0012A6  516D               	movf	___fladd@aexp& (0+255),w,b
  4568   0012A8  B4D8               	btfsc	status,2,c
  4569   0012AA  EF59  F009         	goto	u5021
  4570   0012AE  EF5B  F009         	goto	u5020
  4571   0012B2                     u5021:
  4572   0012B2  EF70  F009         	goto	l4671
  4573   0012B6                     u5020:
  4574   0012B6                     
  4575                           ; BSR set to: 0
  4576   0012B6  296D               	incf	___fladd@aexp& (0+255),w,b
  4577   0012B8  A4D8               	btfss	status,2,c
  4578   0012BA  EF61  F009         	goto	u5031
  4579   0012BE  EF63  F009         	goto	u5030
  4580   0012C2                     u5031:
  4581   0012C2  EF6B  F009         	goto	l4667
  4582   0012C6                     u5030:
  4583   0012C6                     
  4584                           ; BSR set to: 0
  4585   0012C6  0E00               	movlw	0
  4586   0012C8  6F64               	movwf	___fladd@a& (0+255),b
  4587   0012CA  0E00               	movlw	0
  4588   0012CC  6F65               	movwf	(___fladd@a+1)& (0+255),b
  4589   0012CE  0E00               	movlw	0
  4590   0012D0  6F66               	movwf	(___fladd@a+2)& (0+255),b
  4591   0012D2  0E00               	movlw	0
  4592   0012D4  6F67               	movwf	(___fladd@a+3)& (0+255),b
  4593   0012D6                     l4667:
  4594                           
  4595                           ; BSR set to: 0
  4596   0012D6  8F66               	bsf	(___fladd@a+2)& (0+255),7,b
  4597   0012D8                     
  4598                           ; BSR set to: 0
  4599   0012D8  0E00               	movlw	0
  4600   0012DA  6F67               	movwf	(___fladd@a+3)& (0+255),b
  4601   0012DC  EF78  F009         	goto	l4673
  4602   0012E0                     l4671:
  4603                           
  4604                           ; BSR set to: 0
  4605   0012E0  0E00               	movlw	0
  4606   0012E2  6F64               	movwf	___fladd@a& (0+255),b
  4607   0012E4  0E00               	movlw	0
  4608   0012E6  6F65               	movwf	(___fladd@a+1)& (0+255),b
  4609   0012E8  0E00               	movlw	0
  4610   0012EA  6F66               	movwf	(___fladd@a+2)& (0+255),b
  4611   0012EC  0E00               	movlw	0
  4612   0012EE  6F67               	movwf	(___fladd@a+3)& (0+255),b
  4613   0012F0                     l4673:
  4614                           
  4615                           ; BSR set to: 0
  4616   0012F0  516E               	movf	___fladd@bexp& (0+255),w,b
  4617   0012F2  5D6D               	subwf	___fladd@aexp& (0+255),w,b
  4618   0012F4  B0D8               	btfsc	status,0,c
  4619   0012F6  EF7F  F009         	goto	u5041
  4620   0012FA  EF81  F009         	goto	u5040
  4621   0012FE                     u5041:
  4622   0012FE  EFA8  F009         	goto	l4709
  4623   001302                     u5040:
  4624   001302                     
  4625                           ; BSR set to: 0
  4626   001302  AD6C               	btfss	___fladd@signs& (0+255),6,b
  4627   001304  EF86  F009         	goto	u5051
  4628   001308  EF88  F009         	goto	u5050
  4629   00130C                     u5051:
  4630   00130C  EF8A  F009         	goto	l4679
  4631   001310                     u5050:
  4632   001310                     
  4633                           ; BSR set to: 0
  4634   001310  0E80               	movlw	128
  4635   001312  1B6C               	xorwf	___fladd@signs& (0+255),f,b
  4636   001314                     l4679:
  4637                           
  4638                           ; BSR set to: 0
  4639   001314  C06E  F06F         	movff	___fladd@bexp,___fladd@grs
  4640   001318                     
  4641                           ; BSR set to: 0
  4642   001318  C06D  F06E         	movff	___fladd@aexp,___fladd@bexp
  4643   00131C                     
  4644                           ; BSR set to: 0
  4645   00131C  C06F  F06D         	movff	___fladd@grs,___fladd@aexp
  4646   001320                     
  4647                           ; BSR set to: 0
  4648   001320  C060  F06F         	movff	___fladd@b,___fladd@grs
  4649   001324                     
  4650                           ; BSR set to: 0
  4651   001324  C064  F060         	movff	___fladd@a,___fladd@b
  4652   001328                     
  4653                           ; BSR set to: 0
  4654   001328  C06F  F064         	movff	___fladd@grs,___fladd@a
  4655   00132C                     
  4656                           ; BSR set to: 0
  4657   00132C  C061  F06F         	movff	___fladd@b+1,___fladd@grs
  4658   001330                     
  4659                           ; BSR set to: 0
  4660   001330  C065  F061         	movff	___fladd@a+1,___fladd@b+1
  4661   001334                     
  4662                           ; BSR set to: 0
  4663   001334  C06F  F065         	movff	___fladd@grs,___fladd@a+1
  4664   001338                     
  4665                           ; BSR set to: 0
  4666   001338  C062  F06F         	movff	___fladd@b+2,___fladd@grs
  4667   00133C                     
  4668                           ; BSR set to: 0
  4669   00133C  C066  F062         	movff	___fladd@a+2,___fladd@b+2
  4670   001340                     
  4671                           ; BSR set to: 0
  4672   001340  C06F  F066         	movff	___fladd@grs,___fladd@a+2
  4673   001344                     
  4674                           ; BSR set to: 0
  4675   001344  C063  F06F         	movff	___fladd@b+3,___fladd@grs
  4676   001348                     
  4677                           ; BSR set to: 0
  4678   001348  C067  F063         	movff	___fladd@a+3,___fladd@b+3
  4679   00134C                     
  4680                           ; BSR set to: 0
  4681   00134C  C06F  F067         	movff	___fladd@grs,___fladd@a+3
  4682   001350                     l4709:
  4683                           
  4684                           ; BSR set to: 0
  4685   001350  0E00               	movlw	0
  4686   001352  6F6F               	movwf	___fladd@grs& (0+255),b
  4687   001354                     
  4688                           ; BSR set to: 0
  4689   001354  516E               	movf	___fladd@bexp& (0+255),w,b
  4690   001356  C06D  F068         	movff	___fladd@aexp,??___fladd
  4691   00135A  6B69               	clrf	(??___fladd+1)& (0+255),b
  4692   00135C  5F68               	subwf	??___fladd& (0+255),f,b
  4693   00135E  0E00               	movlw	0
  4694   001360  5B69               	subwfb	(??___fladd+1)& (0+255),f,b
  4695   001362  BF69               	btfsc	(??___fladd+1)& (0+255),7,b
  4696   001364  EFBD  F009         	goto	u5061
  4697   001368  5169               	movf	(??___fladd+1)& (0+255),w,b
  4698   00136A  E109               	bnz	u5060
  4699   00136C  0E1A               	movlw	26
  4700   00136E  5D68               	subwf	??___fladd& (0+255),w,b
  4701   001370  A0D8               	btfss	status,0,c
  4702   001372  EFBD  F009         	goto	u5061
  4703   001376  EFBF  F009         	goto	u5060
  4704   00137A                     u5061:
  4705   00137A  EFF6  F009         	goto	l688
  4706   00137E                     u5060:
  4707   00137E                     
  4708                           ; BSR set to: 0
  4709   00137E  5160               	movf	___fladd@b& (0+255),w,b
  4710   001380  1161               	iorwf	(___fladd@b+1)& (0+255),w,b
  4711   001382  1162               	iorwf	(___fladd@b+2)& (0+255),w,b
  4712   001384  1163               	iorwf	(___fladd@b+3)& (0+255),w,b
  4713   001386  A4D8               	btfss	status,2,c
  4714   001388  EFC8  F009         	goto	u5071
  4715   00138C  EFCB  F009         	goto	u5070
  4716   001390                     u5071:
  4717   001390  0E01               	movlw	1
  4718   001392  EFCC  F009         	goto	u5080
  4719   001396                     u5070:
  4720   001396  0E00               	movlw	0
  4721   001398                     u5080:
  4722   001398  6F6F               	movwf	___fladd@grs& (0+255),b
  4723   00139A                     
  4724                           ; BSR set to: 0
  4725   00139A  0E00               	movlw	0
  4726   00139C  6F60               	movwf	___fladd@b& (0+255),b
  4727   00139E  0E00               	movlw	0
  4728   0013A0  6F61               	movwf	(___fladd@b+1)& (0+255),b
  4729   0013A2  0E00               	movlw	0
  4730   0013A4  6F62               	movwf	(___fladd@b+2)& (0+255),b
  4731   0013A6  0E00               	movlw	0
  4732   0013A8  6F63               	movwf	(___fladd@b+3)& (0+255),b
  4733   0013AA                     
  4734                           ; BSR set to: 0
  4735   0013AA  C06D  F06E         	movff	___fladd@aexp,___fladd@bexp
  4736   0013AE  EFFF  F009         	goto	l687
  4737   0013B2                     l689:
  4738                           
  4739                           ; BSR set to: 0
  4740   0013B2  A16F               	btfss	___fladd@grs& (0+255),0,b
  4741   0013B4  EFDE  F009         	goto	u5091
  4742   0013B8  EFE0  F009         	goto	u5090
  4743   0013BC                     u5091:
  4744   0013BC  EFE6  F009         	goto	l4721
  4745   0013C0                     u5090:
  4746   0013C0                     
  4747                           ; BSR set to: 0
  4748   0013C0  90D8               	bcf	status,0,c
  4749   0013C2  316F               	rrcf	___fladd@grs& (0+255),w,b
  4750   0013C4  0901               	iorlw	1
  4751   0013C6  6F6F               	movwf	___fladd@grs& (0+255),b
  4752   0013C8  EFE8  F009         	goto	l4723
  4753   0013CC                     l4721:
  4754                           
  4755                           ; BSR set to: 0
  4756   0013CC  90D8               	bcf	status,0,c
  4757   0013CE  336F               	rrcf	___fladd@grs& (0+255),f,b
  4758   0013D0                     l4723:
  4759                           
  4760                           ; BSR set to: 0
  4761   0013D0  A160               	btfss	___fladd@b& (0+255),0,b
  4762   0013D2  EFED  F009         	goto	u5101
  4763   0013D6  EFEF  F009         	goto	u5100
  4764   0013DA                     u5101:
  4765   0013DA  EFF0  F009         	goto	l4727
  4766   0013DE                     u5100:
  4767   0013DE                     
  4768                           ; BSR set to: 0
  4769   0013DE  8F6F               	bsf	___fladd@grs& (0+255),7,b
  4770   0013E0                     l4727:
  4771                           
  4772                           ; BSR set to: 0
  4773   0013E0  3563               	rlcf	(___fladd@b+3)& (0+255),w,b
  4774   0013E2  3363               	rrcf	(___fladd@b+3)& (0+255),f,b
  4775   0013E4  3362               	rrcf	(___fladd@b+2)& (0+255),f,b
  4776   0013E6  3361               	rrcf	(___fladd@b+1)& (0+255),f,b
  4777   0013E8  3360               	rrcf	___fladd@b& (0+255),f,b
  4778   0013EA                     
  4779                           ; BSR set to: 0
  4780   0013EA  2B6E               	incf	___fladd@bexp& (0+255),f,b
  4781   0013EC                     l688:
  4782                           
  4783                           ; BSR set to: 0
  4784   0013EC  516D               	movf	___fladd@aexp& (0+255),w,b
  4785   0013EE  5D6E               	subwf	___fladd@bexp& (0+255),w,b
  4786   0013F0  A0D8               	btfss	status,0,c
  4787   0013F2  EFFD  F009         	goto	u5111
  4788   0013F6  EFFF  F009         	goto	u5110
  4789   0013FA                     u5111:
  4790   0013FA  EFD9  F009         	goto	l689
  4791   0013FE                     u5110:
  4792   0013FE                     l687:
  4793                           
  4794                           ; BSR set to: 0
  4795   0013FE  BD6C               	btfsc	___fladd@signs& (0+255),6,b
  4796   001400  EF04  F00A         	goto	u5121
  4797   001404  EF06  F00A         	goto	u5120
  4798   001408                     u5121:
  4799   001408  EF46  F00A         	goto	l4755
  4800   00140C                     u5120:
  4801   00140C                     
  4802                           ; BSR set to: 0
  4803   00140C  516E               	movf	___fladd@bexp& (0+255),w,b
  4804   00140E  A4D8               	btfss	status,2,c
  4805   001410  EF0C  F00A         	goto	u5131
  4806   001414  EF0E  F00A         	goto	u5130
  4807   001418                     u5131:
  4808   001418  EF18  F00A         	goto	l4737
  4809   00141C                     u5130:
  4810   00141C                     
  4811                           ; BSR set to: 0
  4812   00141C  0E00               	movlw	0
  4813   00141E  6F60               	movwf	?___fladd& (0+255),b
  4814   001420  0E00               	movlw	0
  4815   001422  6F61               	movwf	(?___fladd+1)& (0+255),b
  4816   001424  0E00               	movlw	0
  4817   001426  6F62               	movwf	(?___fladd+2)& (0+255),b
  4818   001428  0E00               	movlw	0
  4819   00142A  6F63               	movwf	(?___fladd+3)& (0+255),b
  4820   00142C  EF67  F00B         	goto	l696
  4821   001430                     l4737:
  4822                           
  4823                           ; BSR set to: 0
  4824   001430  5164               	movf	___fladd@a& (0+255),w,b
  4825   001432  2760               	addwf	___fladd@b& (0+255),f,b
  4826   001434  5165               	movf	(___fladd@a+1)& (0+255),w,b
  4827   001436  2361               	addwfc	(___fladd@b+1)& (0+255),f,b
  4828   001438  5166               	movf	(___fladd@a+2)& (0+255),w,b
  4829   00143A  2362               	addwfc	(___fladd@b+2)& (0+255),f,b
  4830   00143C  5167               	movf	(___fladd@a+3)& (0+255),w,b
  4831   00143E  2363               	addwfc	(___fladd@b+3)& (0+255),f,b
  4832   001440                     
  4833                           ; BSR set to: 0
  4834   001440  A163               	btfss	(___fladd@b+3)& (0+255),0,b
  4835   001442  EF25  F00A         	goto	u5141
  4836   001446  EF27  F00A         	goto	u5140
  4837   00144A                     u5141:
  4838   00144A  EFD3  F00A         	goto	l4791
  4839   00144E                     u5140:
  4840   00144E                     
  4841                           ; BSR set to: 0
  4842   00144E  A16F               	btfss	___fladd@grs& (0+255),0,b
  4843   001450  EF2C  F00A         	goto	u5151
  4844   001454  EF2E  F00A         	goto	u5150
  4845   001458                     u5151:
  4846   001458  EF34  F00A         	goto	l4745
  4847   00145C                     u5150:
  4848   00145C                     
  4849                           ; BSR set to: 0
  4850   00145C  90D8               	bcf	status,0,c
  4851   00145E  316F               	rrcf	___fladd@grs& (0+255),w,b
  4852   001460  0901               	iorlw	1
  4853   001462  6F6F               	movwf	___fladd@grs& (0+255),b
  4854   001464  EF36  F00A         	goto	l4747
  4855   001468                     l4745:
  4856                           
  4857                           ; BSR set to: 0
  4858   001468  90D8               	bcf	status,0,c
  4859   00146A  336F               	rrcf	___fladd@grs& (0+255),f,b
  4860   00146C                     l4747:
  4861                           
  4862                           ; BSR set to: 0
  4863   00146C  A160               	btfss	___fladd@b& (0+255),0,b
  4864   00146E  EF3B  F00A         	goto	u5161
  4865   001472  EF3D  F00A         	goto	u5160
  4866   001476                     u5161:
  4867   001476  EF3E  F00A         	goto	l4751
  4868   00147A                     u5160:
  4869   00147A                     
  4870                           ; BSR set to: 0
  4871   00147A  8F6F               	bsf	___fladd@grs& (0+255),7,b
  4872   00147C                     l4751:
  4873                           
  4874                           ; BSR set to: 0
  4875   00147C  3563               	rlcf	(___fladd@b+3)& (0+255),w,b
  4876   00147E  3363               	rrcf	(___fladd@b+3)& (0+255),f,b
  4877   001480  3362               	rrcf	(___fladd@b+2)& (0+255),f,b
  4878   001482  3361               	rrcf	(___fladd@b+1)& (0+255),f,b
  4879   001484  3360               	rrcf	___fladd@b& (0+255),f,b
  4880   001486                     
  4881                           ; BSR set to: 0
  4882   001486  2B6E               	incf	___fladd@bexp& (0+255),f,b
  4883   001488  EFD3  F00A         	goto	l4791
  4884   00148C                     l4755:
  4885                           
  4886                           ; BSR set to: 0
  4887   00148C  5164               	movf	___fladd@a& (0+255),w,b
  4888   00148E  5D60               	subwf	___fladd@b& (0+255),w,b
  4889   001490  5165               	movf	(___fladd@a+1)& (0+255),w,b
  4890   001492  5961               	subwfb	(___fladd@b+1)& (0+255),w,b
  4891   001494  5166               	movf	(___fladd@a+2)& (0+255),w,b
  4892   001496  5962               	subwfb	(___fladd@b+2)& (0+255),w,b
  4893   001498  5163               	movf	(___fladd@b+3)& (0+255),w,b
  4894   00149A  0A80               	xorlw	128
  4895   00149C  6F68               	movwf	??___fladd& (0+255),b
  4896   00149E  5167               	movf	(___fladd@a+3)& (0+255),w,b
  4897   0014A0  0A80               	xorlw	128
  4898   0014A2  5968               	subwfb	??___fladd& (0+255),w,b
  4899   0014A4  B0D8               	btfsc	status,0,c
  4900   0014A6  EF57  F00A         	goto	u5171
  4901   0014AA  EF59  F00A         	goto	u5170
  4902   0014AE                     u5171:
  4903   0014AE  EF84  F00A         	goto	l4765
  4904   0014B2                     u5170:
  4905   0014B2                     
  4906                           ; BSR set to: 0
  4907   0014B2  5160               	movf	___fladd@b& (0+255),w,b
  4908   0014B4  5D64               	subwf	___fladd@a& (0+255),w,b
  4909   0014B6  6F68               	movwf	??___fladd& (0+255),b
  4910   0014B8  5161               	movf	(___fladd@b+1)& (0+255),w,b
  4911   0014BA  5965               	subwfb	(___fladd@a+1)& (0+255),w,b
  4912   0014BC  6F69               	movwf	(??___fladd+1)& (0+255),b
  4913   0014BE  5162               	movf	(___fladd@b+2)& (0+255),w,b
  4914   0014C0  5966               	subwfb	(___fladd@a+2)& (0+255),w,b
  4915   0014C2  6F6A               	movwf	(??___fladd+2)& (0+255),b
  4916   0014C4  5163               	movf	(___fladd@b+3)& (0+255),w,b
  4917   0014C6  5967               	subwfb	(___fladd@a+3)& (0+255),w,b
  4918   0014C8  6F6B               	movwf	(??___fladd+3)& (0+255),b
  4919   0014CA  0EFF               	movlw	255
  4920   0014CC  2568               	addwf	??___fladd& (0+255),w,b
  4921   0014CE  6F60               	movwf	___fladd@b& (0+255),b
  4922   0014D0  0EFF               	movlw	255
  4923   0014D2  2169               	addwfc	(??___fladd+1)& (0+255),w,b
  4924   0014D4  6F61               	movwf	(___fladd@b+1)& (0+255),b
  4925   0014D6  0EFF               	movlw	255
  4926   0014D8  216A               	addwfc	(??___fladd+2)& (0+255),w,b
  4927   0014DA  6F62               	movwf	(___fladd@b+2)& (0+255),b
  4928   0014DC  0EFF               	movlw	255
  4929   0014DE  216B               	addwfc	(??___fladd+3)& (0+255),w,b
  4930   0014E0  6F63               	movwf	(___fladd@b+3)& (0+255),b
  4931   0014E2  0E80               	movlw	128
  4932   0014E4  1B6C               	xorwf	___fladd@signs& (0+255),f,b
  4933   0014E6                     
  4934                           ; BSR set to: 0
  4935   0014E6  6D6F               	negf	___fladd@grs& (0+255),b
  4936   0014E8                     
  4937                           ; BSR set to: 0
  4938   0014E8  516F               	movf	___fladd@grs& (0+255),w,b
  4939   0014EA  A4D8               	btfss	status,2,c
  4940   0014EC  EF7A  F00A         	goto	u5181
  4941   0014F0  EF7C  F00A         	goto	u5180
  4942   0014F4                     u5181:
  4943   0014F4  EF8C  F00A         	goto	l704
  4944   0014F8                     u5180:
  4945   0014F8                     
  4946                           ; BSR set to: 0
  4947   0014F8  0E01               	movlw	1
  4948   0014FA  2760               	addwf	___fladd@b& (0+255),f,b
  4949   0014FC  0E00               	movlw	0
  4950   0014FE  2361               	addwfc	(___fladd@b+1)& (0+255),f,b
  4951   001500  2362               	addwfc	(___fladd@b+2)& (0+255),f,b
  4952   001502  2363               	addwfc	(___fladd@b+3)& (0+255),f,b
  4953   001504  EF8C  F00A         	goto	l704
  4954   001508                     l4765:
  4955                           
  4956                           ; BSR set to: 0
  4957   001508  5164               	movf	___fladd@a& (0+255),w,b
  4958   00150A  5F60               	subwf	___fladd@b& (0+255),f,b
  4959   00150C  5165               	movf	(___fladd@a+1)& (0+255),w,b
  4960   00150E  5B61               	subwfb	(___fladd@b+1)& (0+255),f,b
  4961   001510  5166               	movf	(___fladd@a+2)& (0+255),w,b
  4962   001512  5B62               	subwfb	(___fladd@b+2)& (0+255),f,b
  4963   001514  5167               	movf	(___fladd@a+3)& (0+255),w,b
  4964   001516  5B63               	subwfb	(___fladd@b+3)& (0+255),f,b
  4965   001518                     l704:
  4966                           
  4967                           ; BSR set to: 0
  4968   001518  5160               	movf	___fladd@b& (0+255),w,b
  4969   00151A  1161               	iorwf	(___fladd@b+1)& (0+255),w,b
  4970   00151C  1162               	iorwf	(___fladd@b+2)& (0+255),w,b
  4971   00151E  1163               	iorwf	(___fladd@b+3)& (0+255),w,b
  4972   001520  A4D8               	btfss	status,2,c
  4973   001522  EF95  F00A         	goto	u5191
  4974   001526  EF97  F00A         	goto	u5190
  4975   00152A                     u5191:
  4976   00152A  EFCC  F00A         	goto	l4789
  4977   00152E                     u5190:
  4978   00152E                     
  4979                           ; BSR set to: 0
  4980   00152E  516F               	movf	___fladd@grs& (0+255),w,b
  4981   001530  A4D8               	btfss	status,2,c
  4982   001532  EF9D  F00A         	goto	u5201
  4983   001536  EF9F  F00A         	goto	u5200
  4984   00153A                     u5201:
  4985   00153A  EFCC  F00A         	goto	l4789
  4986   00153E                     u5200:
  4987   00153E                     
  4988                           ; BSR set to: 0
  4989   00153E  0E00               	movlw	0
  4990   001540  6F60               	movwf	?___fladd& (0+255),b
  4991   001542  0E00               	movlw	0
  4992   001544  6F61               	movwf	(?___fladd+1)& (0+255),b
  4993   001546  0E00               	movlw	0
  4994   001548  6F62               	movwf	(?___fladd+2)& (0+255),b
  4995   00154A  0E00               	movlw	0
  4996   00154C  6F63               	movwf	(?___fladd+3)& (0+255),b
  4997   00154E  EF67  F00B         	goto	l696
  4998   001552                     l4773:
  4999                           
  5000                           ; BSR set to: 0
  5001   001552  90D8               	bcf	status,0,c
  5002   001554  3760               	rlcf	___fladd@b& (0+255),f,b
  5003   001556  3761               	rlcf	(___fladd@b+1)& (0+255),f,b
  5004   001558  3762               	rlcf	(___fladd@b+2)& (0+255),f,b
  5005   00155A  3763               	rlcf	(___fladd@b+3)& (0+255),f,b
  5006   00155C                     
  5007                           ; BSR set to: 0
  5008   00155C  AF6F               	btfss	___fladd@grs& (0+255),7,b
  5009   00155E  EFB3  F00A         	goto	u5211
  5010   001562  EFB5  F00A         	goto	u5210
  5011   001566                     u5211:
  5012   001566  EFB6  F00A         	goto	l4779
  5013   00156A                     u5210:
  5014   00156A                     
  5015                           ; BSR set to: 0
  5016   00156A  8160               	bsf	___fladd@b& (0+255),0,b
  5017   00156C                     l4779:
  5018                           
  5019                           ; BSR set to: 0
  5020   00156C  A16F               	btfss	___fladd@grs& (0+255),0,b
  5021   00156E  EFBB  F00A         	goto	u5221
  5022   001572  EFBD  F00A         	goto	u5220
  5023   001576                     u5221:
  5024   001576  EFC1  F00A         	goto	l4783
  5025   00157A                     u5220:
  5026   00157A                     
  5027                           ; BSR set to: 0
  5028   00157A  80D8               	bsf	status,0,c
  5029   00157C  376F               	rlcf	___fladd@grs& (0+255),f,b
  5030   00157E  EFC3  F00A         	goto	l4785
  5031   001582                     l4783:
  5032                           
  5033                           ; BSR set to: 0
  5034   001582  90D8               	bcf	status,0,c
  5035   001584  376F               	rlcf	___fladd@grs& (0+255),f,b
  5036   001586                     l4785:
  5037                           
  5038                           ; BSR set to: 0
  5039   001586  516E               	movf	___fladd@bexp& (0+255),w,b
  5040   001588  B4D8               	btfsc	status,2,c
  5041   00158A  EFC9  F00A         	goto	u5231
  5042   00158E  EFCB  F00A         	goto	u5230
  5043   001592                     u5231:
  5044   001592  EFCC  F00A         	goto	l4789
  5045   001596                     u5230:
  5046   001596                     
  5047                           ; BSR set to: 0
  5048   001596  076E               	decf	___fladd@bexp& (0+255),f,b
  5049   001598                     l4789:
  5050                           
  5051                           ; BSR set to: 0
  5052   001598  AF62               	btfss	(___fladd@b+2)& (0+255),7,b
  5053   00159A  EFD1  F00A         	goto	u5241
  5054   00159E  EFD3  F00A         	goto	u5240
  5055   0015A2                     u5241:
  5056   0015A2  EFA9  F00A         	goto	l4773
  5057   0015A6                     u5240:
  5058   0015A6                     l4791:
  5059                           
  5060                           ; BSR set to: 0
  5061   0015A6  0E00               	movlw	0
  5062   0015A8  6F6D               	movwf	___fladd@aexp& (0+255),b
  5063   0015AA                     
  5064                           ; BSR set to: 0
  5065   0015AA  AF6F               	btfss	___fladd@grs& (0+255),7,b
  5066   0015AC  EFDA  F00A         	goto	u5251
  5067   0015B0  EFDC  F00A         	goto	u5250
  5068   0015B4                     u5251:
  5069   0015B4  EFF4  F00A         	goto	l713
  5070   0015B8                     u5250:
  5071   0015B8                     
  5072                           ; BSR set to: 0
  5073   0015B8  C06F  F068         	movff	___fladd@grs,??___fladd
  5074   0015BC  0E7F               	movlw	127
  5075   0015BE  1768               	andwf	??___fladd& (0+255),f,b
  5076   0015C0  B4D8               	btfsc	status,2,c
  5077   0015C2  EFE5  F00A         	goto	u5261
  5078   0015C6  EFE7  F00A         	goto	u5260
  5079   0015CA                     u5261:
  5080   0015CA  EFEB  F00A         	goto	l714
  5081   0015CE                     u5260:
  5082   0015CE                     l4797:
  5083                           
  5084                           ; BSR set to: 0
  5085   0015CE  0E01               	movlw	1
  5086   0015D0  6F6D               	movwf	___fladd@aexp& (0+255),b
  5087   0015D2  EFF4  F00A         	goto	l713
  5088   0015D6                     l714:
  5089                           
  5090                           ; BSR set to: 0
  5091   0015D6  A160               	btfss	___fladd@b& (0+255),0,b
  5092   0015D8  EFF0  F00A         	goto	u5271
  5093   0015DC  EFF2  F00A         	goto	u5270
  5094   0015E0                     u5271:
  5095   0015E0  EFF4  F00A         	goto	l713
  5096   0015E4                     u5270:
  5097   0015E4  EFE7  F00A         	goto	l4797
  5098   0015E8                     l713:
  5099                           
  5100                           ; BSR set to: 0
  5101   0015E8  516D               	movf	___fladd@aexp& (0+255),w,b
  5102   0015EA  B4D8               	btfsc	status,2,c
  5103   0015EC  EFFA  F00A         	goto	u5281
  5104   0015F0  EFFC  F00A         	goto	u5280
  5105   0015F4                     u5281:
  5106   0015F4  EF27  F00B         	goto	l4809
  5107   0015F8                     u5280:
  5108   0015F8                     
  5109                           ; BSR set to: 0
  5110   0015F8  0E01               	movlw	1
  5111   0015FA  2760               	addwf	___fladd@b& (0+255),f,b
  5112   0015FC  0E00               	movlw	0
  5113   0015FE  2361               	addwfc	(___fladd@b+1)& (0+255),f,b
  5114   001600  2362               	addwfc	(___fladd@b+2)& (0+255),f,b
  5115   001602  2363               	addwfc	(___fladd@b+3)& (0+255),f,b
  5116   001604                     
  5117                           ; BSR set to: 0
  5118   001604  A163               	btfss	(___fladd@b+3)& (0+255),0,b
  5119   001606  EF07  F00B         	goto	u5291
  5120   00160A  EF09  F00B         	goto	u5290
  5121   00160E                     u5291:
  5122   00160E  EF27  F00B         	goto	l4809
  5123   001612                     u5290:
  5124   001612                     
  5125                           ; BSR set to: 0
  5126   001612  C060  F068         	movff	___fladd@b,??___fladd
  5127   001616  C061  F069         	movff	___fladd@b+1,??___fladd+1
  5128   00161A  C062  F06A         	movff	___fladd@b+2,??___fladd+2
  5129   00161E  C063  F06B         	movff	___fladd@b+3,??___fladd+3
  5130   001622  356B               	rlcf	(??___fladd+3)& (0+255),w,b
  5131   001624  336B               	rrcf	(??___fladd+3)& (0+255),f,b
  5132   001626  336A               	rrcf	(??___fladd+2)& (0+255),f,b
  5133   001628  3369               	rrcf	(??___fladd+1)& (0+255),f,b
  5134   00162A  3368               	rrcf	??___fladd& (0+255),f,b
  5135   00162C  C068  F060         	movff	??___fladd,___fladd@b
  5136   001630  C069  F061         	movff	??___fladd+1,___fladd@b+1
  5137   001634  C06A  F062         	movff	??___fladd+2,___fladd@b+2
  5138   001638  C06B  F063         	movff	??___fladd+3,___fladd@b+3
  5139   00163C  296E               	incf	___fladd@bexp& (0+255),w,b
  5140   00163E  B4D8               	btfsc	status,2,c
  5141   001640  EF24  F00B         	goto	u5301
  5142   001644  EF26  F00B         	goto	u5300
  5143   001648                     u5301:
  5144   001648  EF27  F00B         	goto	l4809
  5145   00164C                     u5300:
  5146   00164C                     
  5147                           ; BSR set to: 0
  5148   00164C  2B6E               	incf	___fladd@bexp& (0+255),f,b
  5149   00164E                     l4809:
  5150                           
  5151                           ; BSR set to: 0
  5152   00164E  296E               	incf	___fladd@bexp& (0+255),w,b
  5153   001650  B4D8               	btfsc	status,2,c
  5154   001652  EF2D  F00B         	goto	u5311
  5155   001656  EF2F  F00B         	goto	u5310
  5156   00165A                     u5311:
  5157   00165A  EF37  F00B         	goto	l4813
  5158   00165E                     u5310:
  5159   00165E                     
  5160                           ; BSR set to: 0
  5161   00165E  516E               	movf	___fladd@bexp& (0+255),w,b
  5162   001660  A4D8               	btfss	status,2,c
  5163   001662  EF35  F00B         	goto	u5321
  5164   001666  EF37  F00B         	goto	u5320
  5165   00166A                     u5321:
  5166   00166A  EF49  F00B         	goto	l4817
  5167   00166E                     u5320:
  5168   00166E                     l4813:
  5169                           
  5170                           ; BSR set to: 0
  5171   00166E  0E00               	movlw	0
  5172   001670  6F60               	movwf	___fladd@b& (0+255),b
  5173   001672  0E00               	movlw	0
  5174   001674  6F61               	movwf	(___fladd@b+1)& (0+255),b
  5175   001676  0E00               	movlw	0
  5176   001678  6F62               	movwf	(___fladd@b+2)& (0+255),b
  5177   00167A  0E00               	movlw	0
  5178   00167C  6F63               	movwf	(___fladd@b+3)& (0+255),b
  5179   00167E  516E               	movf	___fladd@bexp& (0+255),w,b
  5180   001680  A4D8               	btfss	status,2,c
  5181   001682  EF45  F00B         	goto	u5331
  5182   001686  EF47  F00B         	goto	u5330
  5183   00168A                     u5331:
  5184   00168A  EF49  F00B         	goto	l4817
  5185   00168E                     u5330:
  5186   00168E                     
  5187                           ; BSR set to: 0
  5188   00168E  0E00               	movlw	0
  5189   001690  6F6C               	movwf	___fladd@signs& (0+255),b
  5190   001692                     l4817:
  5191                           
  5192                           ; BSR set to: 0
  5193   001692  A16E               	btfss	___fladd@bexp& (0+255),0,b
  5194   001694  EF4E  F00B         	goto	u5341
  5195   001698  EF50  F00B         	goto	u5340
  5196   00169C                     u5341:
  5197   00169C  EF53  F00B         	goto	l4821
  5198   0016A0                     u5340:
  5199   0016A0                     
  5200                           ; BSR set to: 0
  5201   0016A0  8F62               	bsf	(___fladd@b+2)& (0+255),7,b
  5202   0016A2  EF54  F00B         	goto	l4823
  5203   0016A6                     l4821:
  5204                           
  5205                           ; BSR set to: 0
  5206   0016A6  9F62               	bcf	(___fladd@b+2)& (0+255),7,b
  5207   0016A8                     l4823:
  5208                           
  5209                           ; BSR set to: 0
  5210   0016A8  90D8               	bcf	status,0,c
  5211   0016AA  316E               	rrcf	___fladd@bexp& (0+255),w,b
  5212   0016AC  6F63               	movwf	(___fladd@b+3)& (0+255),b
  5213   0016AE                     
  5214                           ; BSR set to: 0
  5215   0016AE  AF6C               	btfss	___fladd@signs& (0+255),7,b
  5216   0016B0  EF5C  F00B         	goto	u5351
  5217   0016B4  EF5E  F00B         	goto	u5350
  5218   0016B8                     u5351:
  5219   0016B8  EF5F  F00B         	goto	l4829
  5220   0016BC                     u5350:
  5221   0016BC                     
  5222                           ; BSR set to: 0
  5223   0016BC  8F63               	bsf	(___fladd@b+3)& (0+255),7,b
  5224   0016BE                     l4829:
  5225                           
  5226                           ; BSR set to: 0
  5227   0016BE  C060  F060         	movff	___fladd@b,?___fladd
  5228   0016C2  C061  F061         	movff	___fladd@b+1,?___fladd+1
  5229   0016C6  C062  F062         	movff	___fladd@b+2,?___fladd+2
  5230   0016CA  C063  F063         	movff	___fladd@b+3,?___fladd+3
  5231   0016CE                     l696:
  5232                           
  5233                           ; BSR set to: 0
  5234   0016CE  0012               	return		;funcret
  5235   0016D0                     __end_of___fladd:
  5236                           	callstack 0
  5237                           
  5238 ;; *************** function ___flneg *****************
  5239 ;; Defined at:
  5240 ;;		line 15 in file "C:\Program Files\Microchip\xc8\v2.45\pic\sources\c99\common\flneg.c"
  5241 ;; Parameters:    Size  Location     Type
  5242 ;;  f1              4    0[BANK0 ] unsigned char 
  5243 ;; Auto vars:     Size  Location     Type
  5244 ;;		None
  5245 ;; Return value:  Size  Location     Type
  5246 ;;                  4    0[BANK0 ] unsigned char 
  5247 ;; Registers used:
  5248 ;;		wreg, status,2, status,0
  5249 ;; Tracked objects:
  5250 ;;		On entry : 0/0
  5251 ;;		On exit  : 0/0
  5252 ;;		Unchanged: 0/0
  5253 ;; Data sizes:     COMRAM   BANK0   BANK1   BANK2   BANK3   BANK4   BANK5   BANK6   BANK7
  5254 ;;      Params:         0       4       0       0       0       0       0       0       0
  5255 ;;      Locals:         0       0       0       0       0       0       0       0       0
  5256 ;;      Temps:          0       0       0       0       0       0       0       0       0
  5257 ;;      Totals:         0       4       0       0       0       0       0       0       0
  5258 ;;Total ram usage:        4 bytes
  5259 ;; Hardware stack levels used: 1
  5260 ;; Hardware stack levels required when called: 2
  5261 ;; This function calls:
  5262 ;;		Nothing
  5263 ;; This function is called by:
  5264 ;;		_efgtoa
  5265 ;; This function uses a non-reentrant model
  5266 ;;
  5267                           
  5268                           	psect	text17
  5269   003966                     __ptext17:
  5270                           	callstack 0
  5271   003966                     ___flneg:
  5272                           	callstack 24
  5273   003966  0100               	movlb	0	; () banked
  5274   003968  5160               	movf	___flneg@f1& (0+255),w,b
  5275   00396A  1161               	iorwf	(___flneg@f1+1)& (0+255),w,b
  5276   00396C  1162               	iorwf	(___flneg@f1+2)& (0+255),w,b
  5277   00396E  1163               	iorwf	(___flneg@f1+3)& (0+255),w,b
  5278   003970  B4D8               	btfsc	status,2,c
  5279   003972  EFBD  F01C         	goto	u5871
  5280   003976  EFBF  F01C         	goto	u5870
  5281   00397A                     u5871:
  5282   00397A  EFC7  F01C         	goto	l5157
  5283   00397E                     u5870:
  5284   00397E                     
  5285                           ; BSR set to: 0
  5286   00397E  0E00               	movlw	0
  5287   003980  1B60               	xorwf	___flneg@f1& (0+255),f,b
  5288   003982  0E00               	movlw	0
  5289   003984  1B61               	xorwf	(___flneg@f1+1)& (0+255),f,b
  5290   003986  0E00               	movlw	0
  5291   003988  1B62               	xorwf	(___flneg@f1+2)& (0+255),f,b
  5292   00398A  0E80               	movlw	128
  5293   00398C  1B63               	xorwf	(___flneg@f1+3)& (0+255),f,b
  5294   00398E                     l5157:
  5295                           
  5296                           ; BSR set to: 0
  5297   00398E  C060  F060         	movff	___flneg@f1,?___flneg
  5298   003992  C061  F061         	movff	___flneg@f1+1,?___flneg+1
  5299   003996  C062  F062         	movff	___flneg@f1+2,?___flneg+2
  5300   00399A  C063  F063         	movff	___flneg@f1+3,?___flneg+3
  5301   00399E                     
  5302                           ; BSR set to: 0
  5303   00399E  0012               	return		;funcret
  5304   0039A0                     __end_of___flneg:
  5305                           	callstack 0
  5306                           
  5307 ;; *************** function ___flmul *****************
  5308 ;; Defined at:
  5309 ;;		line 8 in file "C:\Program Files\Microchip\xc8\v2.45\pic\sources\c99\common\sprcmul.c"
  5310 ;; Parameters:    Size  Location     Type
  5311 ;;  b               4    0[BANK0 ] unsigned char 
  5312 ;;  a               4    4[BANK0 ] unsigned char 
  5313 ;; Auto vars:     Size  Location     Type
  5314 ;;  prod            4   19[BANK0 ] struct .
  5315 ;;  grs             4   14[BANK0 ] unsigned long 
  5316 ;;  temp            2   23[BANK0 ] struct .
  5317 ;;  bexp            1   18[BANK0 ] unsigned char 
  5318 ;;  aexp            1   13[BANK0 ] unsigned char 
  5319 ;;  sign            1   12[BANK0 ] unsigned char 
  5320 ;; Return value:  Size  Location     Type
  5321 ;;                  4    0[BANK0 ] unsigned char 
  5322 ;; Registers used:
  5323 ;;		wreg, status,2, status,0, prodl, prodh
  5324 ;; Tracked objects:
  5325 ;;		On entry : 0/0
  5326 ;;		On exit  : 0/0
  5327 ;;		Unchanged: 0/0
  5328 ;; Data sizes:     COMRAM   BANK0   BANK1   BANK2   BANK3   BANK4   BANK5   BANK6   BANK7
  5329 ;;      Params:         0       8       0       0       0       0       0       0       0
  5330 ;;      Locals:         0      13       0       0       0       0       0       0       0
  5331 ;;      Temps:          0       4       0       0       0       0       0       0       0
  5332 ;;      Totals:         0      25       0       0       0       0       0       0       0
  5333 ;;Total ram usage:       25 bytes
  5334 ;; Hardware stack levels used: 1
  5335 ;; Hardware stack levels required when called: 2
  5336 ;; This function calls:
  5337 ;;		Nothing
  5338 ;; This function is called by:
  5339 ;;		_efgtoa
  5340 ;; This function uses a non-reentrant model
  5341 ;;
  5342                           
  5343                           	psect	text18
  5344   0016D0                     __ptext18:
  5345                           	callstack 0
  5346   0016D0                     ___flmul:
  5347                           	callstack 24
  5348   0016D0  0100               	movlb	0	; () banked
  5349   0016D2  5163               	movf	(___flmul@b+3)& (0+255),w,b
  5350   0016D4  0B80               	andlw	128
  5351   0016D6  6F6C               	movwf	___flmul@sign& (0+255),b
  5352   0016D8  5163               	movf	(___flmul@b+3)& (0+255),w,b
  5353   0016DA  2563               	addwf	(___flmul@b+3)& (0+255),w,b
  5354   0016DC  6F72               	movwf	___flmul@bexp& (0+255),b
  5355   0016DE                     
  5356                           ; BSR set to: 0
  5357   0016DE  AF62               	btfss	(___flmul@b+2)& (0+255),7,b
  5358   0016E0  EF74  F00B         	goto	u5601
  5359   0016E4  EF76  F00B         	goto	u5600
  5360   0016E8                     u5601:
  5361   0016E8  EF77  F00B         	goto	l4985
  5362   0016EC                     u5600:
  5363   0016EC                     
  5364                           ; BSR set to: 0
  5365   0016EC  8172               	bsf	___flmul@bexp& (0+255),0,b
  5366   0016EE                     l4985:
  5367                           
  5368                           ; BSR set to: 0
  5369   0016EE  5172               	movf	___flmul@bexp& (0+255),w,b
  5370   0016F0  B4D8               	btfsc	status,2,c
  5371   0016F2  EF7D  F00B         	goto	u5611
  5372   0016F6  EF7F  F00B         	goto	u5610
  5373   0016FA                     u5611:
  5374   0016FA  EF92  F00B         	goto	l4993
  5375   0016FE                     u5610:
  5376   0016FE                     
  5377                           ; BSR set to: 0
  5378   0016FE  2972               	incf	___flmul@bexp& (0+255),w,b
  5379   001700  A4D8               	btfss	status,2,c
  5380   001702  EF85  F00B         	goto	u5621
  5381   001706  EF87  F00B         	goto	u5620
  5382   00170A                     u5621:
  5383   00170A  EF8F  F00B         	goto	l4991
  5384   00170E                     u5620:
  5385   00170E                     
  5386                           ; BSR set to: 0
  5387   00170E  0E00               	movlw	0
  5388   001710  6F60               	movwf	___flmul@b& (0+255),b
  5389   001712  0E00               	movlw	0
  5390   001714  6F61               	movwf	(___flmul@b+1)& (0+255),b
  5391   001716  0E00               	movlw	0
  5392   001718  6F62               	movwf	(___flmul@b+2)& (0+255),b
  5393   00171A  0E00               	movlw	0
  5394   00171C  6F63               	movwf	(___flmul@b+3)& (0+255),b
  5395   00171E                     l4991:
  5396                           
  5397                           ; BSR set to: 0
  5398   00171E  8F62               	bsf	(___flmul@b+2)& (0+255),7,b
  5399   001720  EF9A  F00B         	goto	l4995
  5400   001724                     l4993:
  5401                           
  5402                           ; BSR set to: 0
  5403   001724  0E00               	movlw	0
  5404   001726  6F60               	movwf	___flmul@b& (0+255),b
  5405   001728  0E00               	movlw	0
  5406   00172A  6F61               	movwf	(___flmul@b+1)& (0+255),b
  5407   00172C  0E00               	movlw	0
  5408   00172E  6F62               	movwf	(___flmul@b+2)& (0+255),b
  5409   001730  0E00               	movlw	0
  5410   001732  6F63               	movwf	(___flmul@b+3)& (0+255),b
  5411   001734                     l4995:
  5412                           
  5413                           ; BSR set to: 0
  5414   001734  5167               	movf	(___flmul@a+3)& (0+255),w,b
  5415   001736  0B80               	andlw	128
  5416   001738  1B6C               	xorwf	___flmul@sign& (0+255),f,b
  5417   00173A                     
  5418                           ; BSR set to: 0
  5419   00173A  5167               	movf	(___flmul@a+3)& (0+255),w,b
  5420   00173C  2567               	addwf	(___flmul@a+3)& (0+255),w,b
  5421   00173E  6F6D               	movwf	___flmul@aexp& (0+255),b
  5422   001740                     
  5423                           ; BSR set to: 0
  5424   001740  AF66               	btfss	(___flmul@a+2)& (0+255),7,b
  5425   001742  EFA5  F00B         	goto	u5631
  5426   001746  EFA7  F00B         	goto	u5630
  5427   00174A                     u5631:
  5428   00174A  EFA8  F00B         	goto	l5003
  5429   00174E                     u5630:
  5430   00174E                     
  5431                           ; BSR set to: 0
  5432   00174E  816D               	bsf	___flmul@aexp& (0+255),0,b
  5433   001750                     l5003:
  5434                           
  5435                           ; BSR set to: 0
  5436   001750  516D               	movf	___flmul@aexp& (0+255),w,b
  5437   001752  B4D8               	btfsc	status,2,c
  5438   001754  EFAE  F00B         	goto	u5641
  5439   001758  EFB0  F00B         	goto	u5640
  5440   00175C                     u5641:
  5441   00175C  EFC3  F00B         	goto	l5011
  5442   001760                     u5640:
  5443   001760                     
  5444                           ; BSR set to: 0
  5445   001760  296D               	incf	___flmul@aexp& (0+255),w,b
  5446   001762  A4D8               	btfss	status,2,c
  5447   001764  EFB6  F00B         	goto	u5651
  5448   001768  EFB8  F00B         	goto	u5650
  5449   00176C                     u5651:
  5450   00176C  EFC0  F00B         	goto	l5009
  5451   001770                     u5650:
  5452   001770                     
  5453                           ; BSR set to: 0
  5454   001770  0E00               	movlw	0
  5455   001772  6F64               	movwf	___flmul@a& (0+255),b
  5456   001774  0E00               	movlw	0
  5457   001776  6F65               	movwf	(___flmul@a+1)& (0+255),b
  5458   001778  0E00               	movlw	0
  5459   00177A  6F66               	movwf	(___flmul@a+2)& (0+255),b
  5460   00177C  0E00               	movlw	0
  5461   00177E  6F67               	movwf	(___flmul@a+3)& (0+255),b
  5462   001780                     l5009:
  5463                           
  5464                           ; BSR set to: 0
  5465   001780  8F66               	bsf	(___flmul@a+2)& (0+255),7,b
  5466   001782  EFCB  F00B         	goto	l773
  5467   001786                     l5011:
  5468                           
  5469                           ; BSR set to: 0
  5470   001786  0E00               	movlw	0
  5471   001788  6F64               	movwf	___flmul@a& (0+255),b
  5472   00178A  0E00               	movlw	0
  5473   00178C  6F65               	movwf	(___flmul@a+1)& (0+255),b
  5474   00178E  0E00               	movlw	0
  5475   001790  6F66               	movwf	(___flmul@a+2)& (0+255),b
  5476   001792  0E00               	movlw	0
  5477   001794  6F67               	movwf	(___flmul@a+3)& (0+255),b
  5478   001796                     l773:
  5479                           
  5480                           ; BSR set to: 0
  5481   001796  516D               	movf	___flmul@aexp& (0+255),w,b
  5482   001798  B4D8               	btfsc	status,2,c
  5483   00179A  EFD1  F00B         	goto	u5661
  5484   00179E  EFD3  F00B         	goto	u5660
  5485   0017A2                     u5661:
  5486   0017A2  EFDB  F00B         	goto	l5015
  5487   0017A6                     u5660:
  5488   0017A6                     
  5489                           ; BSR set to: 0
  5490   0017A6  5172               	movf	___flmul@bexp& (0+255),w,b
  5491   0017A8  A4D8               	btfss	status,2,c
  5492   0017AA  EFD9  F00B         	goto	u5671
  5493   0017AE  EFDB  F00B         	goto	u5670
  5494   0017B2                     u5671:
  5495   0017B2  EFE5  F00B         	goto	l5019
  5496   0017B6                     u5670:
  5497   0017B6                     l5015:
  5498                           
  5499                           ; BSR set to: 0
  5500   0017B6  0E00               	movlw	0
  5501   0017B8  6F60               	movwf	?___flmul& (0+255),b
  5502   0017BA  0E00               	movlw	0
  5503   0017BC  6F61               	movwf	(?___flmul+1)& (0+255),b
  5504   0017BE  0E00               	movlw	0
  5505   0017C0  6F62               	movwf	(?___flmul+2)& (0+255),b
  5506   0017C2  0E00               	movlw	0
  5507   0017C4  6F63               	movwf	(?___flmul+3)& (0+255),b
  5508   0017C6  EF7D  F00D         	goto	l777
  5509   0017CA                     l5019:
  5510                           
  5511                           ; BSR set to: 0
  5512   0017CA  5166               	movf	(___flmul@a+2)& (0+255),w,b
  5513   0017CC  0360               	mulwf	___flmul@b& (0+255),b
  5514   0017CE  CFF3 F077          	movff	prodl,___flmul@temp
  5515   0017D2  CFF4 F078          	movff	prodh,___flmul@temp+1
  5516   0017D6                     
  5517                           ; BSR set to: 0
  5518   0017D6  5177               	movf	___flmul@temp& (0+255),w,b
  5519   0017D8  6F6E               	movwf	___flmul@grs& (0+255),b
  5520   0017DA  6B6F               	clrf	(___flmul@grs+1)& (0+255),b
  5521   0017DC  6B70               	clrf	(___flmul@grs+2)& (0+255),b
  5522   0017DE  6B71               	clrf	(___flmul@grs+3)& (0+255),b
  5523   0017E0                     
  5524                           ; BSR set to: 0
  5525   0017E0  5178               	movf	(___flmul@temp+1)& (0+255),w,b
  5526   0017E2  6F73               	movwf	___flmul@prod& (0+255),b
  5527   0017E4  6B74               	clrf	(___flmul@prod+1)& (0+255),b
  5528   0017E6  6B75               	clrf	(___flmul@prod+2)& (0+255),b
  5529   0017E8  6B76               	clrf	(___flmul@prod+3)& (0+255),b
  5530   0017EA  5165               	movf	(___flmul@a+1)& (0+255),w,b
  5531   0017EC  0361               	mulwf	(___flmul@b+1)& (0+255),b
  5532   0017EE  CFF3 F077          	movff	prodl,___flmul@temp
  5533   0017F2  CFF4 F078          	movff	prodh,___flmul@temp+1
  5534   0017F6                     
  5535                           ; BSR set to: 0
  5536   0017F6  5177               	movf	___flmul@temp& (0+255),w,b
  5537   0017F8  276E               	addwf	___flmul@grs& (0+255),f,b
  5538   0017FA  0E00               	movlw	0
  5539   0017FC  236F               	addwfc	(___flmul@grs+1)& (0+255),f,b
  5540   0017FE  2370               	addwfc	(___flmul@grs+2)& (0+255),f,b
  5541   001800  2371               	addwfc	(___flmul@grs+3)& (0+255),f,b
  5542   001802                     
  5543                           ; BSR set to: 0
  5544   001802  5178               	movf	(___flmul@temp+1)& (0+255),w,b
  5545   001804  2773               	addwf	___flmul@prod& (0+255),f,b
  5546   001806  0E00               	movlw	0
  5547   001808  2374               	addwfc	(___flmul@prod+1)& (0+255),f,b
  5548   00180A  2375               	addwfc	(___flmul@prod+2)& (0+255),f,b
  5549   00180C  2376               	addwfc	(___flmul@prod+3)& (0+255),f,b
  5550   00180E  5164               	movf	___flmul@a& (0+255),w,b
  5551   001810  0362               	mulwf	(___flmul@b+2)& (0+255),b
  5552   001812  CFF3 F077          	movff	prodl,___flmul@temp
  5553   001816  CFF4 F078          	movff	prodh,___flmul@temp+1
  5554   00181A                     
  5555                           ; BSR set to: 0
  5556   00181A  5177               	movf	___flmul@temp& (0+255),w,b
  5557   00181C  276E               	addwf	___flmul@grs& (0+255),f,b
  5558   00181E  0E00               	movlw	0
  5559   001820  236F               	addwfc	(___flmul@grs+1)& (0+255),f,b
  5560   001822  2370               	addwfc	(___flmul@grs+2)& (0+255),f,b
  5561   001824  2371               	addwfc	(___flmul@grs+3)& (0+255),f,b
  5562   001826                     
  5563                           ; BSR set to: 0
  5564   001826  5178               	movf	(___flmul@temp+1)& (0+255),w,b
  5565   001828  2773               	addwf	___flmul@prod& (0+255),f,b
  5566   00182A  0E00               	movlw	0
  5567   00182C  2374               	addwfc	(___flmul@prod+1)& (0+255),f,b
  5568   00182E  2375               	addwfc	(___flmul@prod+2)& (0+255),f,b
  5569   001830  2376               	addwfc	(___flmul@prod+3)& (0+255),f,b
  5570   001832                     
  5571                           ; BSR set to: 0
  5572   001832  C070  F071         	movff	___flmul@grs+2,___flmul@grs+3
  5573   001836  C06F  F070         	movff	___flmul@grs+1,___flmul@grs+2
  5574   00183A  C06E  F06F         	movff	___flmul@grs,___flmul@grs+1
  5575   00183E  6B6E               	clrf	___flmul@grs& (0+255),b
  5576   001840                     
  5577                           ; BSR set to: 0
  5578   001840  5164               	movf	___flmul@a& (0+255),w,b
  5579   001842  0361               	mulwf	(___flmul@b+1)& (0+255),b
  5580   001844  CFF3 F077          	movff	prodl,___flmul@temp
  5581   001848  CFF4 F078          	movff	prodh,___flmul@temp+1
  5582   00184C                     
  5583                           ; BSR set to: 0
  5584   00184C  5177               	movf	___flmul@temp& (0+255),w,b
  5585   00184E  276E               	addwf	___flmul@grs& (0+255),f,b
  5586   001850  5178               	movf	(___flmul@temp+1)& (0+255),w,b
  5587   001852  236F               	addwfc	(___flmul@grs+1)& (0+255),f,b
  5588   001854  0E00               	movlw	0
  5589   001856  2370               	addwfc	(___flmul@grs+2)& (0+255),f,b
  5590   001858  0E00               	movlw	0
  5591   00185A  2371               	addwfc	(___flmul@grs+3)& (0+255),f,b
  5592   00185C                     
  5593                           ; BSR set to: 0
  5594   00185C  5165               	movf	(___flmul@a+1)& (0+255),w,b
  5595   00185E  0360               	mulwf	___flmul@b& (0+255),b
  5596   001860  CFF3 F077          	movff	prodl,___flmul@temp
  5597   001864  CFF4 F078          	movff	prodh,___flmul@temp+1
  5598   001868                     
  5599                           ; BSR set to: 0
  5600   001868  5177               	movf	___flmul@temp& (0+255),w,b
  5601   00186A  276E               	addwf	___flmul@grs& (0+255),f,b
  5602   00186C  5178               	movf	(___flmul@temp+1)& (0+255),w,b
  5603   00186E  236F               	addwfc	(___flmul@grs+1)& (0+255),f,b
  5604   001870  0E00               	movlw	0
  5605   001872  2370               	addwfc	(___flmul@grs+2)& (0+255),f,b
  5606   001874  0E00               	movlw	0
  5607   001876  2371               	addwfc	(___flmul@grs+3)& (0+255),f,b
  5608   001878                     
  5609                           ; BSR set to: 0
  5610   001878  C070  F071         	movff	___flmul@grs+2,___flmul@grs+3
  5611   00187C  C06F  F070         	movff	___flmul@grs+1,___flmul@grs+2
  5612   001880  C06E  F06F         	movff	___flmul@grs,___flmul@grs+1
  5613   001884  6B6E               	clrf	___flmul@grs& (0+255),b
  5614   001886  5164               	movf	___flmul@a& (0+255),w,b
  5615   001888  0360               	mulwf	___flmul@b& (0+255),b
  5616   00188A  CFF3 F077          	movff	prodl,___flmul@temp
  5617   00188E  CFF4 F078          	movff	prodh,___flmul@temp+1
  5618   001892                     
  5619                           ; BSR set to: 0
  5620   001892  5177               	movf	___flmul@temp& (0+255),w,b
  5621   001894  276E               	addwf	___flmul@grs& (0+255),f,b
  5622   001896  5178               	movf	(___flmul@temp+1)& (0+255),w,b
  5623   001898  236F               	addwfc	(___flmul@grs+1)& (0+255),f,b
  5624   00189A  0E00               	movlw	0
  5625   00189C  2370               	addwfc	(___flmul@grs+2)& (0+255),f,b
  5626   00189E  0E00               	movlw	0
  5627   0018A0  2371               	addwfc	(___flmul@grs+3)& (0+255),f,b
  5628   0018A2                     
  5629                           ; BSR set to: 0
  5630   0018A2  5166               	movf	(___flmul@a+2)& (0+255),w,b
  5631   0018A4  0361               	mulwf	(___flmul@b+1)& (0+255),b
  5632   0018A6  CFF3 F077          	movff	prodl,___flmul@temp
  5633   0018AA  CFF4 F078          	movff	prodh,___flmul@temp+1
  5634   0018AE  5177               	movf	___flmul@temp& (0+255),w,b
  5635   0018B0  2773               	addwf	___flmul@prod& (0+255),f,b
  5636   0018B2  5178               	movf	(___flmul@temp+1)& (0+255),w,b
  5637   0018B4  2374               	addwfc	(___flmul@prod+1)& (0+255),f,b
  5638   0018B6  0E00               	movlw	0
  5639   0018B8  2375               	addwfc	(___flmul@prod+2)& (0+255),f,b
  5640   0018BA  0E00               	movlw	0
  5641   0018BC  2376               	addwfc	(___flmul@prod+3)& (0+255),f,b
  5642   0018BE                     
  5643                           ; BSR set to: 0
  5644   0018BE  5165               	movf	(___flmul@a+1)& (0+255),w,b
  5645   0018C0  0362               	mulwf	(___flmul@b+2)& (0+255),b
  5646   0018C2  CFF3 F077          	movff	prodl,___flmul@temp
  5647   0018C6  CFF4 F078          	movff	prodh,___flmul@temp+1
  5648   0018CA                     
  5649                           ; BSR set to: 0
  5650   0018CA  5177               	movf	___flmul@temp& (0+255),w,b
  5651   0018CC  2773               	addwf	___flmul@prod& (0+255),f,b
  5652   0018CE  5178               	movf	(___flmul@temp+1)& (0+255),w,b
  5653   0018D0  2374               	addwfc	(___flmul@prod+1)& (0+255),f,b
  5654   0018D2  0E00               	movlw	0
  5655   0018D4  2375               	addwfc	(___flmul@prod+2)& (0+255),f,b
  5656   0018D6  0E00               	movlw	0
  5657   0018D8  2376               	addwfc	(___flmul@prod+3)& (0+255),f,b
  5658   0018DA  5166               	movf	(___flmul@a+2)& (0+255),w,b
  5659   0018DC  0362               	mulwf	(___flmul@b+2)& (0+255),b
  5660   0018DE  CFF3 F077          	movff	prodl,___flmul@temp
  5661   0018E2  CFF4 F078          	movff	prodh,___flmul@temp+1
  5662   0018E6                     
  5663                           ; BSR set to: 0
  5664   0018E6  5177               	movf	___flmul@temp& (0+255),w,b
  5665   0018E8  6F68               	movwf	??___flmul& (0+255),b
  5666   0018EA  5178               	movf	(___flmul@temp+1)& (0+255),w,b
  5667   0018EC  6F69               	movwf	(??___flmul+1)& (0+255),b
  5668   0018EE  6B6A               	clrf	(??___flmul+2)& (0+255),b
  5669   0018F0  6B6B               	clrf	(??___flmul+3)& (0+255),b
  5670   0018F2  C06A  F06B         	movff	??___flmul+2,??___flmul+3
  5671   0018F6  C069  F06A         	movff	??___flmul+1,??___flmul+2
  5672   0018FA  C068  F069         	movff	??___flmul,??___flmul+1
  5673   0018FE  6B68               	clrf	??___flmul& (0+255),b
  5674   001900  5168               	movf	??___flmul& (0+255),w,b
  5675   001902  2773               	addwf	___flmul@prod& (0+255),f,b
  5676   001904  5169               	movf	(??___flmul+1)& (0+255),w,b
  5677   001906  2374               	addwfc	(___flmul@prod+1)& (0+255),f,b
  5678   001908  516A               	movf	(??___flmul+2)& (0+255),w,b
  5679   00190A  2375               	addwfc	(___flmul@prod+2)& (0+255),f,b
  5680   00190C  516B               	movf	(??___flmul+3)& (0+255),w,b
  5681   00190E  2376               	addwfc	(___flmul@prod+3)& (0+255),f,b
  5682   001910                     
  5683                           ; BSR set to: 0
  5684   001910  C06E  F068         	movff	___flmul@grs,??___flmul
  5685   001914  C06F  F069         	movff	___flmul@grs+1,??___flmul+1
  5686   001918  C070  F06A         	movff	___flmul@grs+2,??___flmul+2
  5687   00191C  C071  F06B         	movff	___flmul@grs+3,??___flmul+3
  5688   001920  0E19               	movlw	25
  5689   001922  EF98  F00C         	goto	u5680
  5690   001926                     u5685:
  5691   001926  90D8               	bcf	status,0,c
  5692   001928  336B               	rrcf	(??___flmul+3)& (0+255),f,b
  5693   00192A  336A               	rrcf	(??___flmul+2)& (0+255),f,b
  5694   00192C  3369               	rrcf	(??___flmul+1)& (0+255),f,b
  5695   00192E  3368               	rrcf	??___flmul& (0+255),f,b
  5696   001930                     u5680:
  5697   001930  2EE8               	decfsz	wreg,f,c
  5698   001932  EF93  F00C         	goto	u5685
  5699   001936  5168               	movf	??___flmul& (0+255),w,b
  5700   001938  2773               	addwf	___flmul@prod& (0+255),f,b
  5701   00193A  5169               	movf	(??___flmul+1)& (0+255),w,b
  5702   00193C  2374               	addwfc	(___flmul@prod+1)& (0+255),f,b
  5703   00193E  516A               	movf	(??___flmul+2)& (0+255),w,b
  5704   001940  2375               	addwfc	(___flmul@prod+2)& (0+255),f,b
  5705   001942  516B               	movf	(??___flmul+3)& (0+255),w,b
  5706   001944  2376               	addwfc	(___flmul@prod+3)& (0+255),f,b
  5707   001946                     
  5708                           ; BSR set to: 0
  5709   001946  C070  F071         	movff	___flmul@grs+2,___flmul@grs+3
  5710   00194A  C06F  F070         	movff	___flmul@grs+1,___flmul@grs+2
  5711   00194E  C06E  F06F         	movff	___flmul@grs,___flmul@grs+1
  5712   001952  6B6E               	clrf	___flmul@grs& (0+255),b
  5713   001954                     
  5714                           ; BSR set to: 0
  5715   001954  516D               	movf	___flmul@aexp& (0+255),w,b
  5716   001956  C072  F068         	movff	___flmul@bexp,??___flmul
  5717   00195A  6B69               	clrf	(??___flmul+1)& (0+255),b
  5718   00195C  2768               	addwf	??___flmul& (0+255),f,b
  5719   00195E  0E00               	movlw	0
  5720   001960  2369               	addwfc	(??___flmul+1)& (0+255),f,b
  5721   001962  0E82               	movlw	130
  5722   001964  2568               	addwf	??___flmul& (0+255),w,b
  5723   001966  6F77               	movwf	___flmul@temp& (0+255),b
  5724   001968  0EFF               	movlw	255
  5725   00196A  2169               	addwfc	(??___flmul+1)& (0+255),w,b
  5726   00196C  6F78               	movwf	(___flmul@temp+1)& (0+255),b
  5727   00196E  EFCE  F00C         	goto	l5067
  5728   001972                     l5061:
  5729                           
  5730                           ; BSR set to: 0
  5731   001972  90D8               	bcf	status,0,c
  5732   001974  3773               	rlcf	___flmul@prod& (0+255),f,b
  5733   001976  3774               	rlcf	(___flmul@prod+1)& (0+255),f,b
  5734   001978  3775               	rlcf	(___flmul@prod+2)& (0+255),f,b
  5735   00197A  3776               	rlcf	(___flmul@prod+3)& (0+255),f,b
  5736   00197C                     
  5737                           ; BSR set to: 0
  5738   00197C  AF71               	btfss	(___flmul@grs+3)& (0+255),7,b
  5739   00197E  EFC3  F00C         	goto	u5691
  5740   001982  EFC5  F00C         	goto	u5690
  5741   001986                     u5691:
  5742   001986  EFC6  F00C         	goto	l780
  5743   00198A                     u5690:
  5744   00198A                     
  5745                           ; BSR set to: 0
  5746   00198A  8173               	bsf	___flmul@prod& (0+255),0,b
  5747   00198C                     l780:
  5748                           
  5749                           ; BSR set to: 0
  5750   00198C  90D8               	bcf	status,0,c
  5751   00198E  376E               	rlcf	___flmul@grs& (0+255),f,b
  5752   001990  376F               	rlcf	(___flmul@grs+1)& (0+255),f,b
  5753   001992  3770               	rlcf	(___flmul@grs+2)& (0+255),f,b
  5754   001994  3771               	rlcf	(___flmul@grs+3)& (0+255),f,b
  5755   001996  0777               	decf	___flmul@temp& (0+255),f,b
  5756   001998  A0D8               	btfss	status,0,c
  5757   00199A  0778               	decf	(___flmul@temp+1)& (0+255),f,b
  5758   00199C                     l5067:
  5759                           
  5760                           ; BSR set to: 0
  5761   00199C  AF75               	btfss	(___flmul@prod+2)& (0+255),7,b
  5762   00199E  EFD3  F00C         	goto	u5701
  5763   0019A2  EFD5  F00C         	goto	u5700
  5764   0019A6                     u5701:
  5765   0019A6  EFB9  F00C         	goto	l5061
  5766   0019AA                     u5700:
  5767   0019AA                     
  5768                           ; BSR set to: 0
  5769   0019AA  0E00               	movlw	0
  5770   0019AC  6F6D               	movwf	___flmul@aexp& (0+255),b
  5771   0019AE                     
  5772                           ; BSR set to: 0
  5773   0019AE  AF71               	btfss	(___flmul@grs+3)& (0+255),7,b
  5774   0019B0  EFDC  F00C         	goto	u5711
  5775   0019B4  EFDE  F00C         	goto	u5710
  5776   0019B8                     u5711:
  5777   0019B8  EF02  F00D         	goto	l782
  5778   0019BC                     u5710:
  5779   0019BC                     
  5780                           ; BSR set to: 0
  5781   0019BC  0EFF               	movlw	255
  5782   0019BE  156E               	andwf	___flmul@grs& (0+255),w,b
  5783   0019C0  6F68               	movwf	??___flmul& (0+255),b
  5784   0019C2  0EFF               	movlw	255
  5785   0019C4  156F               	andwf	(___flmul@grs+1)& (0+255),w,b
  5786   0019C6  6F69               	movwf	(??___flmul+1)& (0+255),b
  5787   0019C8  0EFF               	movlw	255
  5788   0019CA  1570               	andwf	(___flmul@grs+2)& (0+255),w,b
  5789   0019CC  6F6A               	movwf	(??___flmul+2)& (0+255),b
  5790   0019CE  0E7F               	movlw	127
  5791   0019D0  1571               	andwf	(___flmul@grs+3)& (0+255),w,b
  5792   0019D2  6F6B               	movwf	(??___flmul+3)& (0+255),b
  5793   0019D4  5168               	movf	??___flmul& (0+255),w,b
  5794   0019D6  1169               	iorwf	(??___flmul+1)& (0+255),w,b
  5795   0019D8  116A               	iorwf	(??___flmul+2)& (0+255),w,b
  5796   0019DA  116B               	iorwf	(??___flmul+3)& (0+255),w,b
  5797   0019DC  B4D8               	btfsc	status,2,c
  5798   0019DE  EFF3  F00C         	goto	u5721
  5799   0019E2  EFF5  F00C         	goto	u5720
  5800   0019E6                     u5721:
  5801   0019E6  EFF9  F00C         	goto	l783
  5802   0019EA                     u5720:
  5803   0019EA                     l5075:
  5804                           
  5805                           ; BSR set to: 0
  5806   0019EA  0E01               	movlw	1
  5807   0019EC  6F6D               	movwf	___flmul@aexp& (0+255),b
  5808   0019EE  EF02  F00D         	goto	l782
  5809   0019F2                     l783:
  5810                           
  5811                           ; BSR set to: 0
  5812   0019F2  A173               	btfss	___flmul@prod& (0+255),0,b
  5813   0019F4  EFFE  F00C         	goto	u5731
  5814   0019F8  EF00  F00D         	goto	u5730
  5815   0019FC                     u5731:
  5816   0019FC  EF02  F00D         	goto	l782
  5817   001A00                     u5730:
  5818   001A00  EFF5  F00C         	goto	l5075
  5819   001A04                     l782:
  5820                           
  5821                           ; BSR set to: 0
  5822   001A04  516D               	movf	___flmul@aexp& (0+255),w,b
  5823   001A06  B4D8               	btfsc	status,2,c
  5824   001A08  EF08  F00D         	goto	u5741
  5825   001A0C  EF0A  F00D         	goto	u5740
  5826   001A10                     u5741:
  5827   001A10  EF2E  F00D         	goto	l5087
  5828   001A14                     u5740:
  5829   001A14                     
  5830                           ; BSR set to: 0
  5831   001A14  0E01               	movlw	1
  5832   001A16  2773               	addwf	___flmul@prod& (0+255),f,b
  5833   001A18  0E00               	movlw	0
  5834   001A1A  2374               	addwfc	(___flmul@prod+1)& (0+255),f,b
  5835   001A1C  2375               	addwfc	(___flmul@prod+2)& (0+255),f,b
  5836   001A1E  2376               	addwfc	(___flmul@prod+3)& (0+255),f,b
  5837   001A20                     
  5838                           ; BSR set to: 0
  5839   001A20  A176               	btfss	(___flmul@prod+3)& (0+255),0,b
  5840   001A22  EF15  F00D         	goto	u5751
  5841   001A26  EF17  F00D         	goto	u5750
  5842   001A2A                     u5751:
  5843   001A2A  EF2E  F00D         	goto	l5087
  5844   001A2E                     u5750:
  5845   001A2E                     
  5846                           ; BSR set to: 0
  5847   001A2E  C073  F068         	movff	___flmul@prod,??___flmul
  5848   001A32  C074  F069         	movff	___flmul@prod+1,??___flmul+1
  5849   001A36  C075  F06A         	movff	___flmul@prod+2,??___flmul+2
  5850   001A3A  C076  F06B         	movff	___flmul@prod+3,??___flmul+3
  5851   001A3E  356B               	rlcf	(??___flmul+3)& (0+255),w,b
  5852   001A40  336B               	rrcf	(??___flmul+3)& (0+255),f,b
  5853   001A42  336A               	rrcf	(??___flmul+2)& (0+255),f,b
  5854   001A44  3369               	rrcf	(??___flmul+1)& (0+255),f,b
  5855   001A46  3368               	rrcf	??___flmul& (0+255),f,b
  5856   001A48  C068  F073         	movff	??___flmul,___flmul@prod
  5857   001A4C  C069  F074         	movff	??___flmul+1,___flmul@prod+1
  5858   001A50  C06A  F075         	movff	??___flmul+2,___flmul@prod+2
  5859   001A54  C06B  F076         	movff	??___flmul+3,___flmul@prod+3
  5860   001A58                     
  5861                           ; BSR set to: 0
  5862   001A58  4B77               	infsnz	___flmul@temp& (0+255),f,b
  5863   001A5A  2B78               	incf	(___flmul@temp+1)& (0+255),f,b
  5864   001A5C                     l5087:
  5865                           
  5866                           ; BSR set to: 0
  5867   001A5C  BF78               	btfsc	(___flmul@temp+1)& (0+255),7,b
  5868   001A5E  EF39  F00D         	goto	u5761
  5869   001A62  5178               	movf	(___flmul@temp+1)& (0+255),w,b
  5870   001A64  E108               	bnz	u5760
  5871   001A66  2977               	incf	___flmul@temp& (0+255),w,b
  5872   001A68  A0D8               	btfss	status,0,c
  5873   001A6A  EF39  F00D         	goto	u5761
  5874   001A6E  EF3B  F00D         	goto	u5760
  5875   001A72                     u5761:
  5876   001A72  EF45  F00D         	goto	l5091
  5877   001A76                     u5760:
  5878   001A76                     
  5879                           ; BSR set to: 0
  5880   001A76  0E00               	movlw	0
  5881   001A78  6F73               	movwf	___flmul@prod& (0+255),b
  5882   001A7A  0E00               	movlw	0
  5883   001A7C  6F74               	movwf	(___flmul@prod+1)& (0+255),b
  5884   001A7E  0E80               	movlw	128
  5885   001A80  6F75               	movwf	(___flmul@prod+2)& (0+255),b
  5886   001A82  0E7F               	movlw	127
  5887   001A84  6F76               	movwf	(___flmul@prod+3)& (0+255),b
  5888   001A86  EF73  F00D         	goto	l5103
  5889   001A8A                     l5091:
  5890                           
  5891                           ; BSR set to: 0
  5892   001A8A  BF78               	btfsc	(___flmul@temp+1)& (0+255),7,b
  5893   001A8C  EF52  F00D         	goto	u5770
  5894   001A90  5178               	movf	(___flmul@temp+1)& (0+255),w,b
  5895   001A92  E106               	bnz	u5771
  5896   001A94  0577               	decf	___flmul@temp& (0+255),w,b
  5897   001A96  B0D8               	btfsc	status,0,c
  5898   001A98  EF50  F00D         	goto	u5771
  5899   001A9C  EF52  F00D         	goto	u5770
  5900   001AA0                     u5771:
  5901   001AA0  EF5E  F00D         	goto	l790
  5902   001AA4                     u5770:
  5903   001AA4                     
  5904                           ; BSR set to: 0
  5905   001AA4  0E00               	movlw	0
  5906   001AA6  6F73               	movwf	___flmul@prod& (0+255),b
  5907   001AA8  0E00               	movlw	0
  5908   001AAA  6F74               	movwf	(___flmul@prod+1)& (0+255),b
  5909   001AAC  0E00               	movlw	0
  5910   001AAE  6F75               	movwf	(___flmul@prod+2)& (0+255),b
  5911   001AB0  0E00               	movlw	0
  5912   001AB2  6F76               	movwf	(___flmul@prod+3)& (0+255),b
  5913   001AB4  0E00               	movlw	0
  5914   001AB6  6F6C               	movwf	___flmul@sign& (0+255),b
  5915   001AB8  EF73  F00D         	goto	l5103
  5916   001ABC                     l790:
  5917                           
  5918                           ; BSR set to: 0
  5919   001ABC  C077  F072         	movff	___flmul@temp,___flmul@bexp
  5920   001AC0                     
  5921                           ; BSR set to: 0
  5922   001AC0  0EFF               	movlw	255
  5923   001AC2  1773               	andwf	___flmul@prod& (0+255),f,b
  5924   001AC4  0EFF               	movlw	255
  5925   001AC6  1774               	andwf	(___flmul@prod+1)& (0+255),f,b
  5926   001AC8  0E7F               	movlw	127
  5927   001ACA  1775               	andwf	(___flmul@prod+2)& (0+255),f,b
  5928   001ACC  0E00               	movlw	0
  5929   001ACE  1776               	andwf	(___flmul@prod+3)& (0+255),f,b
  5930   001AD0                     
  5931                           ; BSR set to: 0
  5932   001AD0  A172               	btfss	___flmul@bexp& (0+255),0,b
  5933   001AD2  EF6D  F00D         	goto	u5781
  5934   001AD6  EF6F  F00D         	goto	u5780
  5935   001ADA                     u5781:
  5936   001ADA  EF70  F00D         	goto	l5101
  5937   001ADE                     u5780:
  5938   001ADE                     
  5939                           ; BSR set to: 0
  5940   001ADE  8F75               	bsf	(___flmul@prod+2)& (0+255),7,b
  5941   001AE0                     l5101:
  5942                           
  5943                           ; BSR set to: 0
  5944   001AE0  90D8               	bcf	status,0,c
  5945   001AE2  3172               	rrcf	___flmul@bexp& (0+255),w,b
  5946   001AE4  6F76               	movwf	(___flmul@prod+3)& (0+255),b
  5947   001AE6                     l5103:
  5948                           
  5949                           ; BSR set to: 0
  5950   001AE6  516C               	movf	___flmul@sign& (0+255),w,b
  5951   001AE8  1376               	iorwf	(___flmul@prod+3)& (0+255),f,b
  5952   001AEA                     
  5953                           ; BSR set to: 0
  5954   001AEA  C073  F060         	movff	___flmul@prod,?___flmul
  5955   001AEE  C074  F061         	movff	___flmul@prod+1,?___flmul+1
  5956   001AF2  C075  F062         	movff	___flmul@prod+2,?___flmul+2
  5957   001AF6  C076  F063         	movff	___flmul@prod+3,?___flmul+3
  5958   001AFA                     l777:
  5959                           
  5960                           ; BSR set to: 0
  5961   001AFA  0012               	return		;funcret
  5962   001AFC                     __end_of___flmul:
  5963                           	callstack 0
  5964                           
  5965 ;; *************** function ___flge *****************
  5966 ;; Defined at:
  5967 ;;		line 4 in file "C:\Program Files\Microchip\xc8\v2.45\pic\sources\c99\common\flge.c"
  5968 ;; Parameters:    Size  Location     Type
  5969 ;;  ff1             4   25[BANK0 ] unsigned char 
  5970 ;;  ff2             4   29[BANK0 ] unsigned char 
  5971 ;; Auto vars:     Size  Location     Type
  5972 ;;		None
  5973 ;; Return value:  Size  Location     Type
  5974 ;;		None               void
  5975 ;; Registers used:
  5976 ;;		wreg, status,2, status,0
  5977 ;; Tracked objects:
  5978 ;;		On entry : 0/0
  5979 ;;		On exit  : 0/0
  5980 ;;		Unchanged: 0/0
  5981 ;; Data sizes:     COMRAM   BANK0   BANK1   BANK2   BANK3   BANK4   BANK5   BANK6   BANK7
  5982 ;;      Params:         0       8       0       0       0       0       0       0       0
  5983 ;;      Locals:         0       0       0       0       0       0       0       0       0
  5984 ;;      Temps:          0       4       0       0       0       0       0       0       0
  5985 ;;      Totals:         0      12       0       0       0       0       0       0       0
  5986 ;;Total ram usage:       12 bytes
  5987 ;; Hardware stack levels used: 1
  5988 ;; Hardware stack levels required when called: 2
  5989 ;; This function calls:
  5990 ;;		Nothing
  5991 ;; This function is called by:
  5992 ;;		_efgtoa
  5993 ;; This function uses a non-reentrant model
  5994 ;;
  5995                           
  5996                           	psect	text19
  5997   002E32                     __ptext19:
  5998                           	callstack 0
  5999   002E32                     ___flge:
  6000                           	callstack 24
  6001   002E32  0E00               	movlw	0
  6002   002E34  0100               	movlb	0	; () banked
  6003   002E36  1579               	andwf	___flge@ff1& (0+255),w,b
  6004   002E38  6F81               	movwf	??___flge& (0+255),b
  6005   002E3A  0E00               	movlw	0
  6006   002E3C  157A               	andwf	(___flge@ff1+1)& (0+255),w,b
  6007   002E3E  6F82               	movwf	(??___flge+1)& (0+255),b
  6008   002E40  0E80               	movlw	128
  6009   002E42  157B               	andwf	(___flge@ff1+2)& (0+255),w,b
  6010   002E44  6F83               	movwf	(??___flge+2)& (0+255),b
  6011   002E46  0E7F               	movlw	127
  6012   002E48  157C               	andwf	(___flge@ff1+3)& (0+255),w,b
  6013   002E4A  6F84               	movwf	(??___flge+3)& (0+255),b
  6014   002E4C  5181               	movf	??___flge& (0+255),w,b
  6015   002E4E  1182               	iorwf	(??___flge+1)& (0+255),w,b
  6016   002E50  1183               	iorwf	(??___flge+2)& (0+255),w,b
  6017   002E52  1184               	iorwf	(??___flge+3)& (0+255),w,b
  6018   002E54  A4D8               	btfss	status,2,c
  6019   002E56  EF2F  F017         	goto	u5821
  6020   002E5A  EF31  F017         	goto	u5820
  6021   002E5E                     u5821:
  6022   002E5E  EF39  F017         	goto	l5135
  6023   002E62                     u5820:
  6024   002E62                     
  6025                           ; BSR set to: 0
  6026   002E62  0E00               	movlw	0
  6027   002E64  6F79               	movwf	___flge@ff1& (0+255),b
  6028   002E66  0E00               	movlw	0
  6029   002E68  6F7A               	movwf	(___flge@ff1+1)& (0+255),b
  6030   002E6A  0E00               	movlw	0
  6031   002E6C  6F7B               	movwf	(___flge@ff1+2)& (0+255),b
  6032   002E6E  0E00               	movlw	0
  6033   002E70  6F7C               	movwf	(___flge@ff1+3)& (0+255),b
  6034   002E72                     l5135:
  6035                           
  6036                           ; BSR set to: 0
  6037   002E72  0E00               	movlw	0
  6038   002E74  157D               	andwf	___flge@ff2& (0+255),w,b
  6039   002E76  6F81               	movwf	??___flge& (0+255),b
  6040   002E78  0E00               	movlw	0
  6041   002E7A  157E               	andwf	(___flge@ff2+1)& (0+255),w,b
  6042   002E7C  6F82               	movwf	(??___flge+1)& (0+255),b
  6043   002E7E  0E80               	movlw	128
  6044   002E80  157F               	andwf	(___flge@ff2+2)& (0+255),w,b
  6045   002E82  6F83               	movwf	(??___flge+2)& (0+255),b
  6046   002E84  0E7F               	movlw	127
  6047   002E86  1580               	andwf	(___flge@ff2+3)& (0+255),w,b
  6048   002E88  6F84               	movwf	(??___flge+3)& (0+255),b
  6049   002E8A  5181               	movf	??___flge& (0+255),w,b
  6050   002E8C  1182               	iorwf	(??___flge+1)& (0+255),w,b
  6051   002E8E  1183               	iorwf	(??___flge+2)& (0+255),w,b
  6052   002E90  1184               	iorwf	(??___flge+3)& (0+255),w,b
  6053   002E92  A4D8               	btfss	status,2,c
  6054   002E94  EF4E  F017         	goto	u5831
  6055   002E98  EF50  F017         	goto	u5830
  6056   002E9C                     u5831:
  6057   002E9C  EF58  F017         	goto	l5139
  6058   002EA0                     u5830:
  6059   002EA0                     
  6060                           ; BSR set to: 0
  6061   002EA0  0E00               	movlw	0
  6062   002EA2  6F7D               	movwf	___flge@ff2& (0+255),b
  6063   002EA4  0E00               	movlw	0
  6064   002EA6  6F7E               	movwf	(___flge@ff2+1)& (0+255),b
  6065   002EA8  0E00               	movlw	0
  6066   002EAA  6F7F               	movwf	(___flge@ff2+2)& (0+255),b
  6067   002EAC  0E00               	movlw	0
  6068   002EAE  6F80               	movwf	(___flge@ff2+3)& (0+255),b
  6069   002EB0                     l5139:
  6070                           
  6071                           ; BSR set to: 0
  6072   002EB0  AF7C               	btfss	(___flge@ff1+3)& (0+255),7,b
  6073   002EB2  EF5D  F017         	goto	u5841
  6074   002EB6  EF5F  F017         	goto	u5840
  6075   002EBA                     u5841:
  6076   002EBA  EF68  F017         	goto	l5143
  6077   002EBE                     u5840:
  6078   002EBE                     
  6079                           ; BSR set to: 0
  6080   002EBE  6D79               	negf	___flge@ff1& (0+255),b
  6081   002EC0  1F7A               	comf	(___flge@ff1+1)& (0+255),f,b
  6082   002EC2  B0D8               	btfsc	status,0,c
  6083   002EC4  2B7A               	incf	(___flge@ff1+1)& (0+255),f,b
  6084   002EC6  1F7B               	comf	(___flge@ff1+2)& (0+255),f,b
  6085   002EC8  B0D8               	btfsc	status,0,c
  6086   002ECA  2B7B               	incf	(___flge@ff1+2)& (0+255),f,b
  6087   002ECC  0E80               	movlw	128
  6088   002ECE  577C               	subfwb	(___flge@ff1+3)& (0+255),f,b
  6089   002ED0                     l5143:
  6090                           
  6091                           ; BSR set to: 0
  6092   002ED0  AF80               	btfss	(___flge@ff2+3)& (0+255),7,b
  6093   002ED2  EF6D  F017         	goto	u5851
  6094   002ED6  EF6F  F017         	goto	u5850
  6095   002EDA                     u5851:
  6096   002EDA  EF78  F017         	goto	l424
  6097   002EDE                     u5850:
  6098   002EDE                     
  6099                           ; BSR set to: 0
  6100   002EDE  6D7D               	negf	___flge@ff2& (0+255),b
  6101   002EE0  1F7E               	comf	(___flge@ff2+1)& (0+255),f,b
  6102   002EE2  B0D8               	btfsc	status,0,c
  6103   002EE4  2B7E               	incf	(___flge@ff2+1)& (0+255),f,b
  6104   002EE6  1F7F               	comf	(___flge@ff2+2)& (0+255),f,b
  6105   002EE8  B0D8               	btfsc	status,0,c
  6106   002EEA  2B7F               	incf	(___flge@ff2+2)& (0+255),f,b
  6107   002EEC  0E80               	movlw	128
  6108   002EEE  5780               	subfwb	(___flge@ff2+3)& (0+255),f,b
  6109   002EF0                     l424:
  6110                           
  6111                           ; BSR set to: 0
  6112   002EF0  0E00               	movlw	0
  6113   002EF2  1B79               	xorwf	___flge@ff1& (0+255),f,b
  6114   002EF4  0E00               	movlw	0
  6115   002EF6  1B7A               	xorwf	(___flge@ff1+1)& (0+255),f,b
  6116   002EF8  0E00               	movlw	0
  6117   002EFA  1B7B               	xorwf	(___flge@ff1+2)& (0+255),f,b
  6118   002EFC  0E80               	movlw	128
  6119   002EFE  1B7C               	xorwf	(___flge@ff1+3)& (0+255),f,b
  6120   002F00  0E00               	movlw	0
  6121   002F02  1B7D               	xorwf	___flge@ff2& (0+255),f,b
  6122   002F04  0E00               	movlw	0
  6123   002F06  1B7E               	xorwf	(___flge@ff2+1)& (0+255),f,b
  6124   002F08  0E00               	movlw	0
  6125   002F0A  1B7F               	xorwf	(___flge@ff2+2)& (0+255),f,b
  6126   002F0C  0E80               	movlw	128
  6127   002F0E  1B80               	xorwf	(___flge@ff2+3)& (0+255),f,b
  6128   002F10  517D               	movf	___flge@ff2& (0+255),w,b
  6129   002F12  5D79               	subwf	___flge@ff1& (0+255),w,b
  6130   002F14  517E               	movf	(___flge@ff2+1)& (0+255),w,b
  6131   002F16  597A               	subwfb	(___flge@ff1+1)& (0+255),w,b
  6132   002F18  517F               	movf	(___flge@ff2+2)& (0+255),w,b
  6133   002F1A  597B               	subwfb	(___flge@ff1+2)& (0+255),w,b
  6134   002F1C  5180               	movf	(___flge@ff2+3)& (0+255),w,b
  6135   002F1E  597C               	subwfb	(___flge@ff1+3)& (0+255),w,b
  6136   002F20  B0D8               	btfsc	status,0,c
  6137   002F22  EF95  F017         	goto	u5861
  6138   002F26  EF97  F017         	goto	u5860
  6139   002F2A                     u5861:
  6140   002F2A  EF9A  F017         	goto	l5149
  6141   002F2E                     u5860:
  6142   002F2E                     
  6143                           ; BSR set to: 0
  6144   002F2E  90D8               	bcf	status,0,c
  6145   002F30  EF9B  F017         	goto	l429
  6146   002F34                     l5149:
  6147                           
  6148                           ; BSR set to: 0
  6149   002F34  80D8               	bsf	status,0,c
  6150   002F36                     l429:
  6151                           
  6152                           ; BSR set to: 0
  6153   002F36  0012               	return		;funcret
  6154   002F38                     __end_of___flge:
  6155                           	callstack 0
  6156                           
  6157 ;; *************** function ___fleq *****************
  6158 ;; Defined at:
  6159 ;;		line 4 in file "C:\Program Files\Microchip\xc8\v2.45\pic\sources\c99\common\fleq.c"
  6160 ;; Parameters:    Size  Location     Type
  6161 ;;  ff1             4    0[BANK0 ] unsigned char 
  6162 ;;  ff2             4    4[BANK0 ] unsigned char 
  6163 ;; Auto vars:     Size  Location     Type
  6164 ;;		None
  6165 ;; Return value:  Size  Location     Type
  6166 ;;		None               void
  6167 ;; Registers used:
  6168 ;;		wreg, status,2, status,0
  6169 ;; Tracked objects:
  6170 ;;		On entry : 0/0
  6171 ;;		On exit  : 0/0
  6172 ;;		Unchanged: 0/0
  6173 ;; Data sizes:     COMRAM   BANK0   BANK1   BANK2   BANK3   BANK4   BANK5   BANK6   BANK7
  6174 ;;      Params:         0       8       0       0       0       0       0       0       0
  6175 ;;      Locals:         0       0       0       0       0       0       0       0       0
  6176 ;;      Temps:          0       4       0       0       0       0       0       0       0
  6177 ;;      Totals:         0      12       0       0       0       0       0       0       0
  6178 ;;Total ram usage:       12 bytes
  6179 ;; Hardware stack levels used: 1
  6180 ;; Hardware stack levels required when called: 2
  6181 ;; This function calls:
  6182 ;;		Nothing
  6183 ;; This function is called by:
  6184 ;;		_efgtoa
  6185 ;; This function uses a non-reentrant model
  6186 ;;
  6187                           
  6188                           	psect	text20
  6189   00339E                     __ptext20:
  6190                           	callstack 0
  6191   00339E                     ___fleq:
  6192                           	callstack 24
  6193   00339E  0E00               	movlw	0
  6194   0033A0  0100               	movlb	0	; () banked
  6195   0033A2  1560               	andwf	___fleq@ff1& (0+255),w,b
  6196   0033A4  6F68               	movwf	??___fleq& (0+255),b
  6197   0033A6  0E00               	movlw	0
  6198   0033A8  1561               	andwf	(___fleq@ff1+1)& (0+255),w,b
  6199   0033AA  6F69               	movwf	(??___fleq+1)& (0+255),b
  6200   0033AC  0E80               	movlw	128
  6201   0033AE  1562               	andwf	(___fleq@ff1+2)& (0+255),w,b
  6202   0033B0  6F6A               	movwf	(??___fleq+2)& (0+255),b
  6203   0033B2  0E7F               	movlw	127
  6204   0033B4  1563               	andwf	(___fleq@ff1+3)& (0+255),w,b
  6205   0033B6  6F6B               	movwf	(??___fleq+3)& (0+255),b
  6206   0033B8  5168               	movf	??___fleq& (0+255),w,b
  6207   0033BA  1169               	iorwf	(??___fleq+1)& (0+255),w,b
  6208   0033BC  116A               	iorwf	(??___fleq+2)& (0+255),w,b
  6209   0033BE  116B               	iorwf	(??___fleq+3)& (0+255),w,b
  6210   0033C0  A4D8               	btfss	status,2,c
  6211   0033C2  EFE5  F019         	goto	u5791
  6212   0033C6  EFE7  F019         	goto	u5790
  6213   0033CA                     u5791:
  6214   0033CA  EFEF  F019         	goto	l5119
  6215   0033CE                     u5790:
  6216   0033CE                     
  6217                           ; BSR set to: 0
  6218   0033CE  0E00               	movlw	0
  6219   0033D0  6F60               	movwf	___fleq@ff1& (0+255),b
  6220   0033D2  0E00               	movlw	0
  6221   0033D4  6F61               	movwf	(___fleq@ff1+1)& (0+255),b
  6222   0033D6  0E00               	movlw	0
  6223   0033D8  6F62               	movwf	(___fleq@ff1+2)& (0+255),b
  6224   0033DA  0E00               	movlw	0
  6225   0033DC  6F63               	movwf	(___fleq@ff1+3)& (0+255),b
  6226   0033DE                     l5119:
  6227                           
  6228                           ; BSR set to: 0
  6229   0033DE  0E00               	movlw	0
  6230   0033E0  1564               	andwf	___fleq@ff2& (0+255),w,b
  6231   0033E2  6F68               	movwf	??___fleq& (0+255),b
  6232   0033E4  0E00               	movlw	0
  6233   0033E6  1565               	andwf	(___fleq@ff2+1)& (0+255),w,b
  6234   0033E8  6F69               	movwf	(??___fleq+1)& (0+255),b
  6235   0033EA  0E80               	movlw	128
  6236   0033EC  1566               	andwf	(___fleq@ff2+2)& (0+255),w,b
  6237   0033EE  6F6A               	movwf	(??___fleq+2)& (0+255),b
  6238   0033F0  0E7F               	movlw	127
  6239   0033F2  1567               	andwf	(___fleq@ff2+3)& (0+255),w,b
  6240   0033F4  6F6B               	movwf	(??___fleq+3)& (0+255),b
  6241   0033F6  5168               	movf	??___fleq& (0+255),w,b
  6242   0033F8  1169               	iorwf	(??___fleq+1)& (0+255),w,b
  6243   0033FA  116A               	iorwf	(??___fleq+2)& (0+255),w,b
  6244   0033FC  116B               	iorwf	(??___fleq+3)& (0+255),w,b
  6245   0033FE  A4D8               	btfss	status,2,c
  6246   003400  EF04  F01A         	goto	u5801
  6247   003404  EF06  F01A         	goto	u5800
  6248   003408                     u5801:
  6249   003408  EF0E  F01A         	goto	l5123
  6250   00340C                     u5800:
  6251   00340C                     
  6252                           ; BSR set to: 0
  6253   00340C  0E00               	movlw	0
  6254   00340E  6F64               	movwf	___fleq@ff2& (0+255),b
  6255   003410  0E00               	movlw	0
  6256   003412  6F65               	movwf	(___fleq@ff2+1)& (0+255),b
  6257   003414  0E00               	movlw	0
  6258   003416  6F66               	movwf	(___fleq@ff2+2)& (0+255),b
  6259   003418  0E00               	movlw	0
  6260   00341A  6F67               	movwf	(___fleq@ff2+3)& (0+255),b
  6261   00341C                     l5123:
  6262                           
  6263                           ; BSR set to: 0
  6264   00341C  5164               	movf	___fleq@ff2& (0+255),w,b
  6265   00341E  1960               	xorwf	___fleq@ff1& (0+255),w,b
  6266   003420  E10F               	bnz	u5810
  6267   003422  5165               	movf	(___fleq@ff2+1)& (0+255),w,b
  6268   003424  1961               	xorwf	(___fleq@ff1+1)& (0+255),w,b
  6269   003426  E10C               	bnz	u5810
  6270   003428  5166               	movf	(___fleq@ff2+2)& (0+255),w,b
  6271   00342A  1962               	xorwf	(___fleq@ff1+2)& (0+255),w,b
  6272   00342C  E109               	bnz	u5810
  6273   00342E  5167               	movf	(___fleq@ff2+3)& (0+255),w,b
  6274   003430  1963               	xorwf	(___fleq@ff1+3)& (0+255),w,b
  6275   003432  B4D8               	btfsc	status,2,c
  6276   003434  EF1E  F01A         	goto	u5811
  6277   003438  EF20  F01A         	goto	u5810
  6278   00343C                     u5811:
  6279   00343C  EF23  F01A         	goto	l5127
  6280   003440                     u5810:
  6281   003440                     
  6282                           ; BSR set to: 0
  6283   003440  90D8               	bcf	status,0,c
  6284   003442  EF24  F01A         	goto	l418
  6285   003446                     l5127:
  6286                           
  6287                           ; BSR set to: 0
  6288   003446  80D8               	bsf	status,0,c
  6289   003448                     l418:
  6290                           
  6291                           ; BSR set to: 0
  6292   003448  0012               	return		;funcret
  6293   00344A                     __end_of___fleq:
  6294                           	callstack 0
  6295                           
  6296 ;; *************** function ___fldiv *****************
  6297 ;; Defined at:
  6298 ;;		line 11 in file "C:\Program Files\Microchip\xc8\v2.45\pic\sources\c99\common\sprcdiv.c"
  6299 ;; Parameters:    Size  Location     Type
  6300 ;;  b               4    0[BANK0 ] unsigned char 
  6301 ;;  a               4    4[BANK0 ] unsigned char 
  6302 ;; Auto vars:     Size  Location     Type
  6303 ;;  grs             4   19[BANK0 ] unsigned long 
  6304 ;;  rem             4   12[BANK0 ] unsigned long 
  6305 ;;  new_exp         2   17[BANK0 ] short 
  6306 ;;  aexp            1   24[BANK0 ] unsigned char 
  6307 ;;  bexp            1   23[BANK0 ] unsigned char 
  6308 ;;  sign            1   16[BANK0 ] unsigned char 
  6309 ;; Return value:  Size  Location     Type
  6310 ;;                  4    0[BANK0 ] unsigned char 
  6311 ;; Registers used:
  6312 ;;		wreg, status,2, status,0
  6313 ;; Tracked objects:
  6314 ;;		On entry : 0/0
  6315 ;;		On exit  : 0/0
  6316 ;;		Unchanged: 0/0
  6317 ;; Data sizes:     COMRAM   BANK0   BANK1   BANK2   BANK3   BANK4   BANK5   BANK6   BANK7
  6318 ;;      Params:         0       8       0       0       0       0       0       0       0
  6319 ;;      Locals:         0      13       0       0       0       0       0       0       0
  6320 ;;      Temps:          0       4       0       0       0       0       0       0       0
  6321 ;;      Totals:         0      25       0       0       0       0       0       0       0
  6322 ;;Total ram usage:       25 bytes
  6323 ;; Hardware stack levels used: 1
  6324 ;; Hardware stack levels required when called: 2
  6325 ;; This function calls:
  6326 ;;		Nothing
  6327 ;; This function is called by:
  6328 ;;		_efgtoa
  6329 ;; This function uses a non-reentrant model
  6330 ;;
  6331                           
  6332                           	psect	text21
  6333   001F26                     __ptext21:
  6334                           	callstack 0
  6335   001F26                     ___fldiv:
  6336                           	callstack 24
  6337   001F26  0100               	movlb	0	; () banked
  6338   001F28  5163               	movf	(___fldiv@b+3)& (0+255),w,b
  6339   001F2A  0B80               	andlw	128
  6340   001F2C  6F70               	movwf	___fldiv@sign& (0+255),b
  6341   001F2E  5163               	movf	(___fldiv@b+3)& (0+255),w,b
  6342   001F30  2563               	addwf	(___fldiv@b+3)& (0+255),w,b
  6343   001F32  6F77               	movwf	___fldiv@bexp& (0+255),b
  6344   001F34                     
  6345                           ; BSR set to: 0
  6346   001F34  AF62               	btfss	(___fldiv@b+2)& (0+255),7,b
  6347   001F36  EF9F  F00F         	goto	u5371
  6348   001F3A  EFA1  F00F         	goto	u5370
  6349   001F3E                     u5371:
  6350   001F3E  EFA2  F00F         	goto	l4847
  6351   001F42                     u5370:
  6352   001F42                     
  6353                           ; BSR set to: 0
  6354   001F42  8177               	bsf	___fldiv@bexp& (0+255),0,b
  6355   001F44                     l4847:
  6356                           
  6357                           ; BSR set to: 0
  6358   001F44  5177               	movf	___fldiv@bexp& (0+255),w,b
  6359   001F46  B4D8               	btfsc	status,2,c
  6360   001F48  EFA8  F00F         	goto	u5381
  6361   001F4C  EFAA  F00F         	goto	u5380
  6362   001F50                     u5381:
  6363   001F50  EFBF  F00F         	goto	l4857
  6364   001F54                     u5380:
  6365   001F54                     
  6366                           ; BSR set to: 0
  6367   001F54  2977               	incf	___fldiv@bexp& (0+255),w,b
  6368   001F56  A4D8               	btfss	status,2,c
  6369   001F58  EFB0  F00F         	goto	u5391
  6370   001F5C  EFB2  F00F         	goto	u5390
  6371   001F60                     u5391:
  6372   001F60  EFBA  F00F         	goto	l4853
  6373   001F64                     u5390:
  6374   001F64                     
  6375                           ; BSR set to: 0
  6376   001F64  0E00               	movlw	0
  6377   001F66  6F60               	movwf	___fldiv@b& (0+255),b
  6378   001F68  0E00               	movlw	0
  6379   001F6A  6F61               	movwf	(___fldiv@b+1)& (0+255),b
  6380   001F6C  0E00               	movlw	0
  6381   001F6E  6F62               	movwf	(___fldiv@b+2)& (0+255),b
  6382   001F70  0E00               	movlw	0
  6383   001F72  6F63               	movwf	(___fldiv@b+3)& (0+255),b
  6384   001F74                     l4853:
  6385                           
  6386                           ; BSR set to: 0
  6387   001F74  8F62               	bsf	(___fldiv@b+2)& (0+255),7,b
  6388   001F76                     
  6389                           ; BSR set to: 0
  6390   001F76  0E00               	movlw	0
  6391   001F78  6F63               	movwf	(___fldiv@b+3)& (0+255),b
  6392   001F7A  EFC7  F00F         	goto	l4859
  6393   001F7E                     l4857:
  6394                           
  6395                           ; BSR set to: 0
  6396   001F7E  0E00               	movlw	0
  6397   001F80  6F60               	movwf	___fldiv@b& (0+255),b
  6398   001F82  0E00               	movlw	0
  6399   001F84  6F61               	movwf	(___fldiv@b+1)& (0+255),b
  6400   001F86  0E00               	movlw	0
  6401   001F88  6F62               	movwf	(___fldiv@b+2)& (0+255),b
  6402   001F8A  0E00               	movlw	0
  6403   001F8C  6F63               	movwf	(___fldiv@b+3)& (0+255),b
  6404   001F8E                     l4859:
  6405                           
  6406                           ; BSR set to: 0
  6407   001F8E  5167               	movf	(___fldiv@a+3)& (0+255),w,b
  6408   001F90  0B80               	andlw	128
  6409   001F92  1B70               	xorwf	___fldiv@sign& (0+255),f,b
  6410   001F94                     
  6411                           ; BSR set to: 0
  6412   001F94  5167               	movf	(___fldiv@a+3)& (0+255),w,b
  6413   001F96  2567               	addwf	(___fldiv@a+3)& (0+255),w,b
  6414   001F98  6F78               	movwf	___fldiv@aexp& (0+255),b
  6415   001F9A                     
  6416                           ; BSR set to: 0
  6417   001F9A  AF66               	btfss	(___fldiv@a+2)& (0+255),7,b
  6418   001F9C  EFD2  F00F         	goto	u5401
  6419   001FA0  EFD4  F00F         	goto	u5400
  6420   001FA4                     u5401:
  6421   001FA4  EFD5  F00F         	goto	l4867
  6422   001FA8                     u5400:
  6423   001FA8                     
  6424                           ; BSR set to: 0
  6425   001FA8  8178               	bsf	___fldiv@aexp& (0+255),0,b
  6426   001FAA                     l4867:
  6427                           
  6428                           ; BSR set to: 0
  6429   001FAA  5178               	movf	___fldiv@aexp& (0+255),w,b
  6430   001FAC  B4D8               	btfsc	status,2,c
  6431   001FAE  EFDB  F00F         	goto	u5411
  6432   001FB2  EFDD  F00F         	goto	u5410
  6433   001FB6                     u5411:
  6434   001FB6  EFF2  F00F         	goto	l4877
  6435   001FBA                     u5410:
  6436   001FBA                     
  6437                           ; BSR set to: 0
  6438   001FBA  2978               	incf	___fldiv@aexp& (0+255),w,b
  6439   001FBC  A4D8               	btfss	status,2,c
  6440   001FBE  EFE3  F00F         	goto	u5421
  6441   001FC2  EFE5  F00F         	goto	u5420
  6442   001FC6                     u5421:
  6443   001FC6  EFED  F00F         	goto	l4873
  6444   001FCA                     u5420:
  6445   001FCA                     
  6446                           ; BSR set to: 0
  6447   001FCA  0E00               	movlw	0
  6448   001FCC  6F64               	movwf	___fldiv@a& (0+255),b
  6449   001FCE  0E00               	movlw	0
  6450   001FD0  6F65               	movwf	(___fldiv@a+1)& (0+255),b
  6451   001FD2  0E00               	movlw	0
  6452   001FD4  6F66               	movwf	(___fldiv@a+2)& (0+255),b
  6453   001FD6  0E00               	movlw	0
  6454   001FD8  6F67               	movwf	(___fldiv@a+3)& (0+255),b
  6455   001FDA                     l4873:
  6456                           
  6457                           ; BSR set to: 0
  6458   001FDA  8F66               	bsf	(___fldiv@a+2)& (0+255),7,b
  6459   001FDC                     
  6460                           ; BSR set to: 0
  6461   001FDC  0E00               	movlw	0
  6462   001FDE  6F67               	movwf	(___fldiv@a+3)& (0+255),b
  6463   001FE0  EFFA  F00F         	goto	l4879
  6464   001FE4                     l4877:
  6465                           
  6466                           ; BSR set to: 0
  6467   001FE4  0E00               	movlw	0
  6468   001FE6  6F64               	movwf	___fldiv@a& (0+255),b
  6469   001FE8  0E00               	movlw	0
  6470   001FEA  6F65               	movwf	(___fldiv@a+1)& (0+255),b
  6471   001FEC  0E00               	movlw	0
  6472   001FEE  6F66               	movwf	(___fldiv@a+2)& (0+255),b
  6473   001FF0  0E00               	movlw	0
  6474   001FF2  6F67               	movwf	(___fldiv@a+3)& (0+255),b
  6475   001FF4                     l4879:
  6476                           
  6477                           ; BSR set to: 0
  6478   001FF4  5164               	movf	___fldiv@a& (0+255),w,b
  6479   001FF6  1165               	iorwf	(___fldiv@a+1)& (0+255),w,b
  6480   001FF8  1166               	iorwf	(___fldiv@a+2)& (0+255),w,b
  6481   001FFA  1167               	iorwf	(___fldiv@a+3)& (0+255),w,b
  6482   001FFC  A4D8               	btfss	status,2,c
  6483   001FFE  EF03  F010         	goto	u5431
  6484   002002  EF05  F010         	goto	u5430
  6485   002006                     u5431:
  6486   002006  EF1D  F010         	goto	l4891
  6487   00200A                     u5430:
  6488   00200A                     
  6489                           ; BSR set to: 0
  6490   00200A  0E00               	movlw	0
  6491   00200C  6F60               	movwf	___fldiv@b& (0+255),b
  6492   00200E  0E00               	movlw	0
  6493   002010  6F61               	movwf	(___fldiv@b+1)& (0+255),b
  6494   002012  0E00               	movlw	0
  6495   002014  6F62               	movwf	(___fldiv@b+2)& (0+255),b
  6496   002016  0E00               	movlw	0
  6497   002018  6F63               	movwf	(___fldiv@b+3)& (0+255),b
  6498   00201A                     
  6499                           ; BSR set to: 0
  6500   00201A  0E80               	movlw	128
  6501   00201C  1362               	iorwf	(___fldiv@b+2)& (0+255),f,b
  6502   00201E  0E7F               	movlw	127
  6503   002020  1363               	iorwf	(___fldiv@b+3)& (0+255),f,b
  6504   002022                     l4885:
  6505                           
  6506                           ; BSR set to: 0
  6507   002022  5170               	movf	___fldiv@sign& (0+255),w,b
  6508   002024  1363               	iorwf	(___fldiv@b+3)& (0+255),f,b
  6509   002026                     
  6510                           ; BSR set to: 0
  6511   002026  C060  F060         	movff	___fldiv@b,?___fldiv
  6512   00202A  C061  F061         	movff	___fldiv@b+1,?___fldiv+1
  6513   00202E  C062  F062         	movff	___fldiv@b+2,?___fldiv+2
  6514   002032  C063  F063         	movff	___fldiv@b+3,?___fldiv+3
  6515   002036  EF60  F011         	goto	l741
  6516   00203A                     l4891:
  6517                           
  6518                           ; BSR set to: 0
  6519   00203A  5177               	movf	___fldiv@bexp& (0+255),w,b
  6520   00203C  A4D8               	btfss	status,2,c
  6521   00203E  EF23  F010         	goto	u5441
  6522   002042  EF25  F010         	goto	u5440
  6523   002046                     u5441:
  6524   002046  EF2F  F010         	goto	l4899
  6525   00204A                     u5440:
  6526   00204A                     
  6527                           ; BSR set to: 0
  6528   00204A  0E00               	movlw	0
  6529   00204C  6F60               	movwf	?___fldiv& (0+255),b
  6530   00204E  0E00               	movlw	0
  6531   002050  6F61               	movwf	(?___fldiv+1)& (0+255),b
  6532   002052  0E00               	movlw	0
  6533   002054  6F62               	movwf	(?___fldiv+2)& (0+255),b
  6534   002056  0E00               	movlw	0
  6535   002058  6F63               	movwf	(?___fldiv+3)& (0+255),b
  6536   00205A  EF60  F011         	goto	l741
  6537   00205E                     l4899:
  6538                           
  6539                           ; BSR set to: 0
  6540   00205E  5178               	movf	___fldiv@aexp& (0+255),w,b
  6541   002060  C077  F068         	movff	___fldiv@bexp,??___fldiv
  6542   002064  6B69               	clrf	(??___fldiv+1)& (0+255),b
  6543   002066  5F68               	subwf	??___fldiv& (0+255),f,b
  6544   002068  0E00               	movlw	0
  6545   00206A  5B69               	subwfb	(??___fldiv+1)& (0+255),f,b
  6546   00206C  0E7F               	movlw	127
  6547   00206E  2568               	addwf	??___fldiv& (0+255),w,b
  6548   002070  6F71               	movwf	___fldiv@new_exp& (0+255),b
  6549   002072  0E00               	movlw	0
  6550   002074  2169               	addwfc	(??___fldiv+1)& (0+255),w,b
  6551   002076  6F72               	movwf	(___fldiv@new_exp+1)& (0+255),b
  6552   002078                     
  6553                           ; BSR set to: 0
  6554   002078  C060  F06C         	movff	___fldiv@b,___fldiv@rem
  6555   00207C  C061  F06D         	movff	___fldiv@b+1,___fldiv@rem+1
  6556   002080  C062  F06E         	movff	___fldiv@b+2,___fldiv@rem+2
  6557   002084  C063  F06F         	movff	___fldiv@b+3,___fldiv@rem+3
  6558   002088                     
  6559                           ; BSR set to: 0
  6560   002088  0E00               	movlw	0
  6561   00208A  6F60               	movwf	___fldiv@b& (0+255),b
  6562   00208C  0E00               	movlw	0
  6563   00208E  6F61               	movwf	(___fldiv@b+1)& (0+255),b
  6564   002090  0E00               	movlw	0
  6565   002092  6F62               	movwf	(___fldiv@b+2)& (0+255),b
  6566   002094  0E00               	movlw	0
  6567   002096  6F63               	movwf	(___fldiv@b+3)& (0+255),b
  6568   002098                     
  6569                           ; BSR set to: 0
  6570   002098  0E00               	movlw	0
  6571   00209A  6F73               	movwf	___fldiv@grs& (0+255),b
  6572   00209C  0E00               	movlw	0
  6573   00209E  6F74               	movwf	(___fldiv@grs+1)& (0+255),b
  6574   0020A0  0E00               	movlw	0
  6575   0020A2  6F75               	movwf	(___fldiv@grs+2)& (0+255),b
  6576   0020A4  0E00               	movlw	0
  6577   0020A6  6F76               	movwf	(___fldiv@grs+3)& (0+255),b
  6578   0020A8                     
  6579                           ; BSR set to: 0
  6580   0020A8  0E00               	movlw	0
  6581   0020AA  6F78               	movwf	___fldiv@aexp& (0+255),b
  6582   0020AC  EF90  F010         	goto	l743
  6583   0020B0                     l4909:
  6584                           
  6585                           ; BSR set to: 0
  6586   0020B0  5178               	movf	___fldiv@aexp& (0+255),w,b
  6587   0020B2  B4D8               	btfsc	status,2,c
  6588   0020B4  EF5E  F010         	goto	u5451
  6589   0020B8  EF60  F010         	goto	u5450
  6590   0020BC                     u5451:
  6591   0020BC  EF77  F010         	goto	l4917
  6592   0020C0                     u5450:
  6593   0020C0                     
  6594                           ; BSR set to: 0
  6595   0020C0  90D8               	bcf	status,0,c
  6596   0020C2  376C               	rlcf	___fldiv@rem& (0+255),f,b
  6597   0020C4  376D               	rlcf	(___fldiv@rem+1)& (0+255),f,b
  6598   0020C6  376E               	rlcf	(___fldiv@rem+2)& (0+255),f,b
  6599   0020C8  376F               	rlcf	(___fldiv@rem+3)& (0+255),f,b
  6600   0020CA  90D8               	bcf	status,0,c
  6601   0020CC  3760               	rlcf	___fldiv@b& (0+255),f,b
  6602   0020CE  3761               	rlcf	(___fldiv@b+1)& (0+255),f,b
  6603   0020D0  3762               	rlcf	(___fldiv@b+2)& (0+255),f,b
  6604   0020D2  3763               	rlcf	(___fldiv@b+3)& (0+255),f,b
  6605   0020D4                     
  6606                           ; BSR set to: 0
  6607   0020D4  AF76               	btfss	(___fldiv@grs+3)& (0+255),7,b
  6608   0020D6  EF6F  F010         	goto	u5461
  6609   0020DA  EF71  F010         	goto	u5460
  6610   0020DE                     u5461:
  6611   0020DE  EF72  F010         	goto	l746
  6612   0020E2                     u5460:
  6613   0020E2                     
  6614                           ; BSR set to: 0
  6615   0020E2  8160               	bsf	___fldiv@b& (0+255),0,b
  6616   0020E4                     l746:
  6617                           
  6618                           ; BSR set to: 0
  6619   0020E4  90D8               	bcf	status,0,c
  6620   0020E6  3773               	rlcf	___fldiv@grs& (0+255),f,b
  6621   0020E8  3774               	rlcf	(___fldiv@grs+1)& (0+255),f,b
  6622   0020EA  3775               	rlcf	(___fldiv@grs+2)& (0+255),f,b
  6623   0020EC  3776               	rlcf	(___fldiv@grs+3)& (0+255),f,b
  6624   0020EE                     l4917:
  6625                           
  6626                           ; BSR set to: 0
  6627   0020EE  5164               	movf	___fldiv@a& (0+255),w,b
  6628   0020F0  5D6C               	subwf	___fldiv@rem& (0+255),w,b
  6629   0020F2  5165               	movf	(___fldiv@a+1)& (0+255),w,b
  6630   0020F4  596D               	subwfb	(___fldiv@rem+1)& (0+255),w,b
  6631   0020F6  5166               	movf	(___fldiv@a+2)& (0+255),w,b
  6632   0020F8  596E               	subwfb	(___fldiv@rem+2)& (0+255),w,b
  6633   0020FA  5167               	movf	(___fldiv@a+3)& (0+255),w,b
  6634   0020FC  596F               	subwfb	(___fldiv@rem+3)& (0+255),w,b
  6635   0020FE  A0D8               	btfss	status,0,c
  6636   002100  EF84  F010         	goto	u5471
  6637   002104  EF86  F010         	goto	u5470
  6638   002108                     u5471:
  6639   002108  EF8F  F010         	goto	l4923
  6640   00210C                     u5470:
  6641   00210C                     
  6642                           ; BSR set to: 0
  6643   00210C  8D76               	bsf	(___fldiv@grs+3)& (0+255),6,b
  6644   00210E                     
  6645                           ; BSR set to: 0
  6646   00210E  5164               	movf	___fldiv@a& (0+255),w,b
  6647   002110  5F6C               	subwf	___fldiv@rem& (0+255),f,b
  6648   002112  5165               	movf	(___fldiv@a+1)& (0+255),w,b
  6649   002114  5B6D               	subwfb	(___fldiv@rem+1)& (0+255),f,b
  6650   002116  5166               	movf	(___fldiv@a+2)& (0+255),w,b
  6651   002118  5B6E               	subwfb	(___fldiv@rem+2)& (0+255),f,b
  6652   00211A  5167               	movf	(___fldiv@a+3)& (0+255),w,b
  6653   00211C  5B6F               	subwfb	(___fldiv@rem+3)& (0+255),f,b
  6654   00211E                     l4923:
  6655                           
  6656                           ; BSR set to: 0
  6657   00211E  2B78               	incf	___fldiv@aexp& (0+255),f,b
  6658   002120                     l743:
  6659                           
  6660                           ; BSR set to: 0
  6661   002120  0E19               	movlw	25
  6662   002122  6578               	cpfsgt	___fldiv@aexp& (0+255),b
  6663   002124  EF96  F010         	goto	u5481
  6664   002128  EF98  F010         	goto	u5480
  6665   00212C                     u5481:
  6666   00212C  EF58  F010         	goto	l4909
  6667   002130                     u5480:
  6668   002130                     
  6669                           ; BSR set to: 0
  6670   002130  516C               	movf	___fldiv@rem& (0+255),w,b
  6671   002132  116D               	iorwf	(___fldiv@rem+1)& (0+255),w,b
  6672   002134  116E               	iorwf	(___fldiv@rem+2)& (0+255),w,b
  6673   002136  116F               	iorwf	(___fldiv@rem+3)& (0+255),w,b
  6674   002138  B4D8               	btfsc	status,2,c
  6675   00213A  EFA1  F010         	goto	u5491
  6676   00213E  EFA3  F010         	goto	u5490
  6677   002142                     u5491:
  6678   002142  EFBB  F010         	goto	l4935
  6679   002146                     u5490:
  6680   002146                     
  6681                           ; BSR set to: 0
  6682   002146  8173               	bsf	___fldiv@grs& (0+255),0,b
  6683   002148  EFBB  F010         	goto	l4935
  6684   00214C                     l4929:
  6685                           
  6686                           ; BSR set to: 0
  6687   00214C  90D8               	bcf	status,0,c
  6688   00214E  3760               	rlcf	___fldiv@b& (0+255),f,b
  6689   002150  3761               	rlcf	(___fldiv@b+1)& (0+255),f,b
  6690   002152  3762               	rlcf	(___fldiv@b+2)& (0+255),f,b
  6691   002154  3763               	rlcf	(___fldiv@b+3)& (0+255),f,b
  6692   002156                     
  6693                           ; BSR set to: 0
  6694   002156  AF76               	btfss	(___fldiv@grs+3)& (0+255),7,b
  6695   002158  EFB0  F010         	goto	u5501
  6696   00215C  EFB2  F010         	goto	u5500
  6697   002160                     u5501:
  6698   002160  EFB3  F010         	goto	l752
  6699   002164                     u5500:
  6700   002164                     
  6701                           ; BSR set to: 0
  6702   002164  8160               	bsf	___fldiv@b& (0+255),0,b
  6703   002166                     l752:
  6704                           
  6705                           ; BSR set to: 0
  6706   002166  90D8               	bcf	status,0,c
  6707   002168  3773               	rlcf	___fldiv@grs& (0+255),f,b
  6708   00216A  3774               	rlcf	(___fldiv@grs+1)& (0+255),f,b
  6709   00216C  3775               	rlcf	(___fldiv@grs+2)& (0+255),f,b
  6710   00216E  3776               	rlcf	(___fldiv@grs+3)& (0+255),f,b
  6711   002170  0771               	decf	___fldiv@new_exp& (0+255),f,b
  6712   002172  A0D8               	btfss	status,0,c
  6713   002174  0772               	decf	(___fldiv@new_exp+1)& (0+255),f,b
  6714   002176                     l4935:
  6715                           
  6716                           ; BSR set to: 0
  6717   002176  AF62               	btfss	(___fldiv@b+2)& (0+255),7,b
  6718   002178  EFC0  F010         	goto	u5511
  6719   00217C  EFC2  F010         	goto	u5510
  6720   002180                     u5511:
  6721   002180  EFA6  F010         	goto	l4929
  6722   002184                     u5510:
  6723   002184                     
  6724                           ; BSR set to: 0
  6725   002184  0E00               	movlw	0
  6726   002186  6F78               	movwf	___fldiv@aexp& (0+255),b
  6727   002188                     
  6728                           ; BSR set to: 0
  6729   002188  AF76               	btfss	(___fldiv@grs+3)& (0+255),7,b
  6730   00218A  EFC9  F010         	goto	u5521
  6731   00218E  EFCB  F010         	goto	u5520
  6732   002192                     u5521:
  6733   002192  EFEF  F010         	goto	l754
  6734   002196                     u5520:
  6735   002196                     
  6736                           ; BSR set to: 0
  6737   002196  0EFF               	movlw	255
  6738   002198  1573               	andwf	___fldiv@grs& (0+255),w,b
  6739   00219A  6F68               	movwf	??___fldiv& (0+255),b
  6740   00219C  0EFF               	movlw	255
  6741   00219E  1574               	andwf	(___fldiv@grs+1)& (0+255),w,b
  6742   0021A0  6F69               	movwf	(??___fldiv+1)& (0+255),b
  6743   0021A2  0EFF               	movlw	255
  6744   0021A4  1575               	andwf	(___fldiv@grs+2)& (0+255),w,b
  6745   0021A6  6F6A               	movwf	(??___fldiv+2)& (0+255),b
  6746   0021A8  0E7F               	movlw	127
  6747   0021AA  1576               	andwf	(___fldiv@grs+3)& (0+255),w,b
  6748   0021AC  6F6B               	movwf	(??___fldiv+3)& (0+255),b
  6749   0021AE  5168               	movf	??___fldiv& (0+255),w,b
  6750   0021B0  1169               	iorwf	(??___fldiv+1)& (0+255),w,b
  6751   0021B2  116A               	iorwf	(??___fldiv+2)& (0+255),w,b
  6752   0021B4  116B               	iorwf	(??___fldiv+3)& (0+255),w,b
  6753   0021B6  B4D8               	btfsc	status,2,c
  6754   0021B8  EFE0  F010         	goto	u5531
  6755   0021BC  EFE2  F010         	goto	u5530
  6756   0021C0                     u5531:
  6757   0021C0  EFE6  F010         	goto	l755
  6758   0021C4                     u5530:
  6759   0021C4                     l4943:
  6760                           
  6761                           ; BSR set to: 0
  6762   0021C4  0E01               	movlw	1
  6763   0021C6  6F78               	movwf	___fldiv@aexp& (0+255),b
  6764   0021C8  EFEF  F010         	goto	l754
  6765   0021CC                     l755:
  6766                           
  6767                           ; BSR set to: 0
  6768   0021CC  A160               	btfss	___fldiv@b& (0+255),0,b
  6769   0021CE  EFEB  F010         	goto	u5541
  6770   0021D2  EFED  F010         	goto	u5540
  6771   0021D6                     u5541:
  6772   0021D6  EFEF  F010         	goto	l754
  6773   0021DA                     u5540:
  6774   0021DA  EFE2  F010         	goto	l4943
  6775   0021DE                     l754:
  6776                           
  6777                           ; BSR set to: 0
  6778   0021DE  5178               	movf	___fldiv@aexp& (0+255),w,b
  6779   0021E0  B4D8               	btfsc	status,2,c
  6780   0021E2  EFF5  F010         	goto	u5551
  6781   0021E6  EFF7  F010         	goto	u5550
  6782   0021EA                     u5551:
  6783   0021EA  EF1B  F011         	goto	l4955
  6784   0021EE                     u5550:
  6785   0021EE                     
  6786                           ; BSR set to: 0
  6787   0021EE  0E01               	movlw	1
  6788   0021F0  2760               	addwf	___fldiv@b& (0+255),f,b
  6789   0021F2  0E00               	movlw	0
  6790   0021F4  2361               	addwfc	(___fldiv@b+1)& (0+255),f,b
  6791   0021F6  2362               	addwfc	(___fldiv@b+2)& (0+255),f,b
  6792   0021F8  2363               	addwfc	(___fldiv@b+3)& (0+255),f,b
  6793   0021FA                     
  6794                           ; BSR set to: 0
  6795   0021FA  A163               	btfss	(___fldiv@b+3)& (0+255),0,b
  6796   0021FC  EF02  F011         	goto	u5561
  6797   002200  EF04  F011         	goto	u5560
  6798   002204                     u5561:
  6799   002204  EF1B  F011         	goto	l4955
  6800   002208                     u5560:
  6801   002208                     
  6802                           ; BSR set to: 0
  6803   002208  C060  F068         	movff	___fldiv@b,??___fldiv
  6804   00220C  C061  F069         	movff	___fldiv@b+1,??___fldiv+1
  6805   002210  C062  F06A         	movff	___fldiv@b+2,??___fldiv+2
  6806   002214  C063  F06B         	movff	___fldiv@b+3,??___fldiv+3
  6807   002218  356B               	rlcf	(??___fldiv+3)& (0+255),w,b
  6808   00221A  336B               	rrcf	(??___fldiv+3)& (0+255),f,b
  6809   00221C  336A               	rrcf	(??___fldiv+2)& (0+255),f,b
  6810   00221E  3369               	rrcf	(??___fldiv+1)& (0+255),f,b
  6811   002220  3368               	rrcf	??___fldiv& (0+255),f,b
  6812   002222  C068  F060         	movff	??___fldiv,___fldiv@b
  6813   002226  C069  F061         	movff	??___fldiv+1,___fldiv@b+1
  6814   00222A  C06A  F062         	movff	??___fldiv+2,___fldiv@b+2
  6815   00222E  C06B  F063         	movff	??___fldiv+3,___fldiv@b+3
  6816   002232                     
  6817                           ; BSR set to: 0
  6818   002232  4B71               	infsnz	___fldiv@new_exp& (0+255),f,b
  6819   002234  2B72               	incf	(___fldiv@new_exp+1)& (0+255),f,b
  6820   002236                     l4955:
  6821                           
  6822                           ; BSR set to: 0
  6823   002236  BF72               	btfsc	(___fldiv@new_exp+1)& (0+255),7,b
  6824   002238  EF26  F011         	goto	u5571
  6825   00223C  5172               	movf	(___fldiv@new_exp+1)& (0+255),w,b
  6826   00223E  E108               	bnz	u5570
  6827   002240  2971               	incf	___fldiv@new_exp& (0+255),w,b
  6828   002242  A0D8               	btfss	status,0,c
  6829   002244  EF26  F011         	goto	u5571
  6830   002248  EF28  F011         	goto	u5570
  6831   00224C                     u5571:
  6832   00224C  EF33  F011         	goto	l4959
  6833   002250                     u5570:
  6834   002250                     
  6835                           ; BSR set to: 0
  6836   002250  0E00               	movlw	0
  6837   002252  6F72               	movwf	(___fldiv@new_exp+1)& (0+255),b
  6838   002254  6971               	setf	___fldiv@new_exp& (0+255),b
  6839   002256  0E00               	movlw	0
  6840   002258  6F60               	movwf	___fldiv@b& (0+255),b
  6841   00225A  0E00               	movlw	0
  6842   00225C  6F61               	movwf	(___fldiv@b+1)& (0+255),b
  6843   00225E  0E00               	movlw	0
  6844   002260  6F62               	movwf	(___fldiv@b+2)& (0+255),b
  6845   002262  0E00               	movlw	0
  6846   002264  6F63               	movwf	(___fldiv@b+3)& (0+255),b
  6847   002266                     l4959:
  6848                           
  6849                           ; BSR set to: 0
  6850   002266  BF72               	btfsc	(___fldiv@new_exp+1)& (0+255),7,b
  6851   002268  EF40  F011         	goto	u5580
  6852   00226C  5172               	movf	(___fldiv@new_exp+1)& (0+255),w,b
  6853   00226E  E106               	bnz	u5581
  6854   002270  0571               	decf	___fldiv@new_exp& (0+255),w,b
  6855   002272  B0D8               	btfsc	status,0,c
  6856   002274  EF3E  F011         	goto	u5581
  6857   002278  EF40  F011         	goto	u5580
  6858   00227C                     u5581:
  6859   00227C  EF4E  F011         	goto	l4963
  6860   002280                     u5580:
  6861   002280                     
  6862                           ; BSR set to: 0
  6863   002280  0E00               	movlw	0
  6864   002282  6F72               	movwf	(___fldiv@new_exp+1)& (0+255),b
  6865   002284  0E00               	movlw	0
  6866   002286  6F71               	movwf	___fldiv@new_exp& (0+255),b
  6867   002288  0E00               	movlw	0
  6868   00228A  6F60               	movwf	___fldiv@b& (0+255),b
  6869   00228C  0E00               	movlw	0
  6870   00228E  6F61               	movwf	(___fldiv@b+1)& (0+255),b
  6871   002290  0E00               	movlw	0
  6872   002292  6F62               	movwf	(___fldiv@b+2)& (0+255),b
  6873   002294  0E00               	movlw	0
  6874   002296  6F63               	movwf	(___fldiv@b+3)& (0+255),b
  6875   002298  0E00               	movlw	0
  6876   00229A  6F70               	movwf	___fldiv@sign& (0+255),b
  6877   00229C                     l4963:
  6878                           
  6879                           ; BSR set to: 0
  6880   00229C  C071  F077         	movff	___fldiv@new_exp,___fldiv@bexp
  6881   0022A0                     
  6882                           ; BSR set to: 0
  6883   0022A0  A177               	btfss	___fldiv@bexp& (0+255),0,b
  6884   0022A2  EF55  F011         	goto	u5591
  6885   0022A6  EF57  F011         	goto	u5590
  6886   0022AA                     u5591:
  6887   0022AA  EF5A  F011         	goto	l4969
  6888   0022AE                     u5590:
  6889   0022AE                     
  6890                           ; BSR set to: 0
  6891   0022AE  8F62               	bsf	(___fldiv@b+2)& (0+255),7,b
  6892   0022B0  EF5B  F011         	goto	l4971
  6893   0022B4                     l4969:
  6894                           
  6895                           ; BSR set to: 0
  6896   0022B4  9F62               	bcf	(___fldiv@b+2)& (0+255),7,b
  6897   0022B6                     l4971:
  6898                           
  6899                           ; BSR set to: 0
  6900   0022B6  90D8               	bcf	status,0,c
  6901   0022B8  3177               	rrcf	___fldiv@bexp& (0+255),w,b
  6902   0022BA  6F63               	movwf	(___fldiv@b+3)& (0+255),b
  6903   0022BC  EF11  F010         	goto	l4885
  6904   0022C0                     l741:
  6905                           
  6906                           ; BSR set to: 0
  6907   0022C0  0012               	return		;funcret
  6908   0022C2                     __end_of___fldiv:
  6909                           	callstack 0
  6910                           
  6911 ;; *************** function ___lwmod *****************
  6912 ;; Defined at:
  6913 ;;		line 7 in file "C:\Program Files\Microchip\xc8\v2.45\pic\sources\c99\common\lwmod.c"
  6914 ;; Parameters:    Size  Location     Type
  6915 ;;  dividend        2    0[BANK0 ] unsigned int 
  6916 ;;  divisor         2    2[BANK0 ] unsigned int 
  6917 ;; Auto vars:     Size  Location     Type
  6918 ;;  counter         1   43[COMRAM] unsigned char 
  6919 ;; Return value:  Size  Location     Type
  6920 ;;                  2    0[BANK0 ] unsigned int 
  6921 ;; Registers used:
  6922 ;;		wreg, status,2, status,0
  6923 ;; Tracked objects:
  6924 ;;		On entry : 0/0
  6925 ;;		On exit  : 0/0
  6926 ;;		Unchanged: 0/0
  6927 ;; Data sizes:     COMRAM   BANK0   BANK1   BANK2   BANK3   BANK4   BANK5   BANK6   BANK7
  6928 ;;      Params:         0       4       0       0       0       0       0       0       0
  6929 ;;      Locals:         1       0       0       0       0       0       0       0       0
  6930 ;;      Temps:          0       0       0       0       0       0       0       0       0
  6931 ;;      Totals:         1       4       0       0       0       0       0       0       0
  6932 ;;Total ram usage:        5 bytes
  6933 ;; Hardware stack levels used: 1
  6934 ;; Hardware stack levels required when called: 2
  6935 ;; This function calls:
  6936 ;;		Nothing
  6937 ;; This function is called by:
  6938 ;;		_vfpfcnvrt
  6939 ;; This function uses a non-reentrant model
  6940 ;;
  6941                           
  6942                           	psect	text22
  6943   003664                     __ptext22:
  6944                           	callstack 0
  6945   003664                     ___lwmod:
  6946                           	callstack 25
  6947   003664  0100               	movlb	0	; () banked
  6948   003666  5162               	movf	___lwmod@divisor& (0+255),w,b
  6949   003668  1163               	iorwf	(___lwmod@divisor+1)& (0+255),w,b
  6950   00366A  B4D8               	btfsc	status,2,c
  6951   00366C  EF3A  F01B         	goto	u6241
  6952   003670  EF3C  F01B         	goto	u6240
  6953   003674                     u6241:
  6954   003674  EF60  F01B         	goto	l660
  6955   003678                     u6240:
  6956   003678                     
  6957                           ; BSR set to: 0
  6958   003678  0E01               	movlw	1
  6959   00367A  6E2C               	movwf	___lwmod@counter^0,c
  6960   00367C  EF44  F01B         	goto	l5335
  6961   003680                     l5333:
  6962                           
  6963                           ; BSR set to: 0
  6964   003680  90D8               	bcf	status,0,c
  6965   003682  3762               	rlcf	___lwmod@divisor& (0+255),f,b
  6966   003684  3763               	rlcf	(___lwmod@divisor+1)& (0+255),f,b
  6967   003686  2A2C               	incf	___lwmod@counter^0,f,c
  6968   003688                     l5335:
  6969                           
  6970                           ; BSR set to: 0
  6971   003688  AF63               	btfss	(___lwmod@divisor+1)& (0+255),7,b
  6972   00368A  EF49  F01B         	goto	u6251
  6973   00368E  EF4B  F01B         	goto	u6250
  6974   003692                     u6251:
  6975   003692  EF40  F01B         	goto	l5333
  6976   003696                     u6250:
  6977   003696                     l5337:
  6978                           
  6979                           ; BSR set to: 0
  6980   003696  5162               	movf	___lwmod@divisor& (0+255),w,b
  6981   003698  5D60               	subwf	___lwmod@dividend& (0+255),w,b
  6982   00369A  5163               	movf	(___lwmod@divisor+1)& (0+255),w,b
  6983   00369C  5961               	subwfb	(___lwmod@dividend+1)& (0+255),w,b
  6984   00369E  A0D8               	btfss	status,0,c
  6985   0036A0  EF54  F01B         	goto	u6261
  6986   0036A4  EF56  F01B         	goto	u6260
  6987   0036A8                     u6261:
  6988   0036A8  EF5A  F01B         	goto	l5341
  6989   0036AC                     u6260:
  6990   0036AC                     
  6991                           ; BSR set to: 0
  6992   0036AC  5162               	movf	___lwmod@divisor& (0+255),w,b
  6993   0036AE  5F60               	subwf	___lwmod@dividend& (0+255),f,b
  6994   0036B0  5163               	movf	(___lwmod@divisor+1)& (0+255),w,b
  6995   0036B2  5B61               	subwfb	(___lwmod@dividend+1)& (0+255),f,b
  6996   0036B4                     l5341:
  6997                           
  6998                           ; BSR set to: 0
  6999   0036B4  90D8               	bcf	status,0,c
  7000   0036B6  3363               	rrcf	(___lwmod@divisor+1)& (0+255),f,b
  7001   0036B8  3362               	rrcf	___lwmod@divisor& (0+255),f,b
  7002   0036BA                     
  7003                           ; BSR set to: 0
  7004   0036BA  2E2C               	decfsz	___lwmod@counter^0,f,c
  7005   0036BC  EF4B  F01B         	goto	l5337
  7006   0036C0                     l660:
  7007                           
  7008                           ; BSR set to: 0
  7009   0036C0  C060  F060         	movff	___lwmod@dividend,?___lwmod
  7010   0036C4  C061  F061         	movff	___lwmod@dividend+1,?___lwmod+1
  7011   0036C8                     
  7012                           ; BSR set to: 0
  7013   0036C8  0012               	return		;funcret
  7014   0036CA                     __end_of___lwmod:
  7015                           	callstack 0
  7016                           
  7017 ;; *************** function ___lwdiv *****************
  7018 ;; Defined at:
  7019 ;;		line 7 in file "C:\Program Files\Microchip\xc8\v2.45\pic\sources\c99\common\lwdiv.c"
  7020 ;; Parameters:    Size  Location     Type
  7021 ;;  dividend        2    0[BANK0 ] unsigned int 
  7022 ;;  divisor         2    2[BANK0 ] unsigned int 
  7023 ;; Auto vars:     Size  Location     Type
  7024 ;;  quotient        2    5[BANK0 ] unsigned int 
  7025 ;;  counter         1    4[BANK0 ] unsigned char 
  7026 ;; Return value:  Size  Location     Type
  7027 ;;                  2    0[BANK0 ] unsigned int 
  7028 ;; Registers used:
  7029 ;;		wreg, status,2, status,0
  7030 ;; Tracked objects:
  7031 ;;		On entry : 0/0
  7032 ;;		On exit  : 0/0
  7033 ;;		Unchanged: 0/0
  7034 ;; Data sizes:     COMRAM   BANK0   BANK1   BANK2   BANK3   BANK4   BANK5   BANK6   BANK7
  7035 ;;      Params:         0       4       0       0       0       0       0       0       0
  7036 ;;      Locals:         0       3       0       0       0       0       0       0       0
  7037 ;;      Temps:          0       0       0       0       0       0       0       0       0
  7038 ;;      Totals:         0       7       0       0       0       0       0       0       0
  7039 ;;Total ram usage:        7 bytes
  7040 ;; Hardware stack levels used: 1
  7041 ;; Hardware stack levels required when called: 2
  7042 ;; This function calls:
  7043 ;;		Nothing
  7044 ;; This function is called by:
  7045 ;;		_vfpfcnvrt
  7046 ;; This function uses a non-reentrant model
  7047 ;;
  7048                           
  7049                           	psect	text23
  7050   00357C                     __ptext23:
  7051                           	callstack 0
  7052   00357C                     ___lwdiv:
  7053                           	callstack 25
  7054   00357C  0E00               	movlw	0
  7055   00357E  0100               	movlb	0	; () banked
  7056   003580  6F66               	movwf	(___lwdiv@quotient+1)& (0+255),b
  7057   003582  0E00               	movlw	0
  7058   003584  6F65               	movwf	___lwdiv@quotient& (0+255),b
  7059   003586                     
  7060                           ; BSR set to: 0
  7061   003586  5162               	movf	___lwdiv@divisor& (0+255),w,b
  7062   003588  1163               	iorwf	(___lwdiv@divisor+1)& (0+255),w,b
  7063   00358A  B4D8               	btfsc	status,2,c
  7064   00358C  EFCA  F01A         	goto	u6211
  7065   003590  EFCC  F01A         	goto	u6210
  7066   003594                     u6211:
  7067   003594  EFF4  F01A         	goto	l650
  7068   003598                     u6210:
  7069   003598                     
  7070                           ; BSR set to: 0
  7071   003598  0E01               	movlw	1
  7072   00359A  6F64               	movwf	___lwdiv@counter& (0+255),b
  7073   00359C  EFD4  F01A         	goto	l5315
  7074   0035A0                     l5313:
  7075                           
  7076                           ; BSR set to: 0
  7077   0035A0  90D8               	bcf	status,0,c
  7078   0035A2  3762               	rlcf	___lwdiv@divisor& (0+255),f,b
  7079   0035A4  3763               	rlcf	(___lwdiv@divisor+1)& (0+255),f,b
  7080   0035A6  2B64               	incf	___lwdiv@counter& (0+255),f,b
  7081   0035A8                     l5315:
  7082                           
  7083                           ; BSR set to: 0
  7084   0035A8  AF63               	btfss	(___lwdiv@divisor+1)& (0+255),7,b
  7085   0035AA  EFD9  F01A         	goto	u6221
  7086   0035AE  EFDB  F01A         	goto	u6220
  7087   0035B2                     u6221:
  7088   0035B2  EFD0  F01A         	goto	l5313
  7089   0035B6                     u6220:
  7090   0035B6                     l5317:
  7091                           
  7092                           ; BSR set to: 0
  7093   0035B6  90D8               	bcf	status,0,c
  7094   0035B8  3765               	rlcf	___lwdiv@quotient& (0+255),f,b
  7095   0035BA  3766               	rlcf	(___lwdiv@quotient+1)& (0+255),f,b
  7096   0035BC                     
  7097                           ; BSR set to: 0
  7098   0035BC  5162               	movf	___lwdiv@divisor& (0+255),w,b
  7099   0035BE  5D60               	subwf	___lwdiv@dividend& (0+255),w,b
  7100   0035C0  5163               	movf	(___lwdiv@divisor+1)& (0+255),w,b
  7101   0035C2  5961               	subwfb	(___lwdiv@dividend+1)& (0+255),w,b
  7102   0035C4  A0D8               	btfss	status,0,c
  7103   0035C6  EFE7  F01A         	goto	u6231
  7104   0035CA  EFE9  F01A         	goto	u6230
  7105   0035CE                     u6231:
  7106   0035CE  EFEE  F01A         	goto	l5325
  7107   0035D2                     u6230:
  7108   0035D2                     
  7109                           ; BSR set to: 0
  7110   0035D2  5162               	movf	___lwdiv@divisor& (0+255),w,b
  7111   0035D4  5F60               	subwf	___lwdiv@dividend& (0+255),f,b
  7112   0035D6  5163               	movf	(___lwdiv@divisor+1)& (0+255),w,b
  7113   0035D8  5B61               	subwfb	(___lwdiv@dividend+1)& (0+255),f,b
  7114   0035DA                     
  7115                           ; BSR set to: 0
  7116   0035DA  8165               	bsf	___lwdiv@quotient& (0+255),0,b
  7117   0035DC                     l5325:
  7118                           
  7119                           ; BSR set to: 0
  7120   0035DC  90D8               	bcf	status,0,c
  7121   0035DE  3363               	rrcf	(___lwdiv@divisor+1)& (0+255),f,b
  7122   0035E0  3362               	rrcf	___lwdiv@divisor& (0+255),f,b
  7123   0035E2                     
  7124                           ; BSR set to: 0
  7125   0035E2  2F64               	decfsz	___lwdiv@counter& (0+255),f,b
  7126   0035E4  EFDB  F01A         	goto	l5317
  7127   0035E8                     l650:
  7128                           
  7129                           ; BSR set to: 0
  7130   0035E8  C065  F060         	movff	___lwdiv@quotient,?___lwdiv
  7131   0035EC  C066  F061         	movff	___lwdiv@quotient+1,?___lwdiv+1
  7132   0035F0                     
  7133                           ; BSR set to: 0
  7134   0035F0  0012               	return		;funcret
  7135   0035F2                     __end_of___lwdiv:
  7136                           	callstack 0
  7137                           
  7138 ;; *************** function _Lcd_Write_String *****************
  7139 ;; Defined at:
  7140 ;;		line 104 in file "lcd.c"
  7141 ;; Parameters:    Size  Location     Type
  7142 ;;  a               1   44[COMRAM] PTR const unsigned char 
  7143 ;;		 -> buffer(20), 
  7144 ;; Auto vars:     Size  Location     Type
  7145 ;;  i               2    3[BANK0 ] int 
  7146 ;; Return value:  Size  Location     Type
  7147 ;;                  1    wreg      void 
  7148 ;; Registers used:
  7149 ;;		wreg, fsr2l, fsr2h, status,2, status,0, cstack
  7150 ;; Tracked objects:
  7151 ;;		On entry : 0/0
  7152 ;;		On exit  : 0/0
  7153 ;;		Unchanged: 0/0
  7154 ;; Data sizes:     COMRAM   BANK0   BANK1   BANK2   BANK3   BANK4   BANK5   BANK6   BANK7
  7155 ;;      Params:         1       0       0       0       0       0       0       0       0
  7156 ;;      Locals:         0       2       0       0       0       0       0       0       0
  7157 ;;      Temps:          0       0       0       0       0       0       0       0       0
  7158 ;;      Totals:         1       2       0       0       0       0       0       0       0
  7159 ;;Total ram usage:        3 bytes
  7160 ;; Hardware stack levels used: 1
  7161 ;; Hardware stack levels required when called: 4
  7162 ;; This function calls:
  7163 ;;		_Lcd_Write_Char
  7164 ;; This function is called by:
  7165 ;;		_main
  7166 ;; This function uses a non-reentrant model
  7167 ;;
  7168                           
  7169                           	psect	text24
  7170   00392A                     __ptext24:
  7171                           	callstack 0
  7172   00392A                     _Lcd_Write_String:
  7173                           	callstack 26
  7174   00392A                     
  7175                           ;lcd.c: 104: void Lcd_Write_String(const char *a);lcd.c: 105: {;lcd.c: 106:     int i;;l
      +                          cd.c: 107:     for(i=0;a[i]!='\0';i++)
  7176   00392A  0E00               	movlw	0
  7177   00392C  0100               	movlb	0	; () banked
  7178   00392E  6F64               	movwf	(Lcd_Write_String@i+1)& (0+255),b
  7179   003930  0E00               	movlw	0
  7180   003932  6F63               	movwf	Lcd_Write_String@i& (0+255),b
  7181   003934  EFA6  F01C         	goto	l5787
  7182   003938                     l5783:
  7183                           
  7184                           ; BSR set to: 0
  7185                           ;lcd.c: 108:         Lcd_Write_Char(a[i]);
  7186   003938  502D               	movf	Lcd_Write_String@a^0,w,c
  7187   00393A  2563               	addwf	Lcd_Write_String@i& (0+255),w,b
  7188   00393C  6ED9               	movwf	fsr2l,c
  7189   00393E  6ADA               	clrf	fsr2h,c
  7190   003940  50DF               	movf	indf2,w,c
  7191   003942  ECD0  F01C         	call	_Lcd_Write_Char
  7192   003946  0100               	movlb	0	; () banked
  7193   003948  4B63               	infsnz	Lcd_Write_String@i& (0+255),f,b
  7194   00394A  2B64               	incf	(Lcd_Write_String@i+1)& (0+255),f,b
  7195   00394C                     l5787:
  7196                           
  7197                           ; BSR set to: 0
  7198   00394C  502D               	movf	Lcd_Write_String@a^0,w,c
  7199   00394E  2563               	addwf	Lcd_Write_String@i& (0+255),w,b
  7200   003950  6ED9               	movwf	fsr2l,c
  7201   003952  6ADA               	clrf	fsr2h,c
  7202   003954  50DF               	movf	indf2,w,c
  7203   003956  A4D8               	btfss	status,2,c
  7204   003958  EFB0  F01C         	goto	u6701
  7205   00395C  EFB2  F01C         	goto	u6700
  7206   003960                     u6701:
  7207   003960  EF9C  F01C         	goto	l5783
  7208   003964                     u6700:
  7209   003964                     
  7210                           ; BSR set to: 0
  7211   003964  0012               	return		;funcret
  7212   003966                     __end_of_Lcd_Write_String:
  7213                           	callstack 0
  7214                           
  7215 ;; *************** function _Lcd_Write_Char *****************
  7216 ;; Defined at:
  7217 ;;		line 88 in file "lcd.c"
  7218 ;; Parameters:    Size  Location     Type
  7219 ;;  a               1    wreg     unsigned char 
  7220 ;; Auto vars:     Size  Location     Type
  7221 ;;  a               1    2[BANK0 ] unsigned char 
  7222 ;;  y               1    1[BANK0 ] unsigned char 
  7223 ;;  temp            1    0[BANK0 ] unsigned char 
  7224 ;; Return value:  Size  Location     Type
  7225 ;;                  1    wreg      void 
  7226 ;; Registers used:
  7227 ;;		wreg, status,2, status,0, cstack
  7228 ;; Tracked objects:
  7229 ;;		On entry : 0/0
  7230 ;;		On exit  : 0/0
  7231 ;;		Unchanged: 0/0
  7232 ;; Data sizes:     COMRAM   BANK0   BANK1   BANK2   BANK3   BANK4   BANK5   BANK6   BANK7
  7233 ;;      Params:         0       0       0       0       0       0       0       0       0
  7234 ;;      Locals:         0       3       0       0       0       0       0       0       0
  7235 ;;      Temps:          0       0       0       0       0       0       0       0       0
  7236 ;;      Totals:         0       3       0       0       0       0       0       0       0
  7237 ;;Total ram usage:        3 bytes
  7238 ;; Hardware stack levels used: 1
  7239 ;; Hardware stack levels required when called: 3
  7240 ;; This function calls:
  7241 ;;		_Lcd_Port
  7242 ;; This function is called by:
  7243 ;;		_Lcd_Write_String
  7244 ;;		_Lcd_CGRAM_CreateChar
  7245 ;; This function uses a non-reentrant model
  7246 ;;
  7247                           
  7248                           	psect	text25
  7249   0039A0                     __ptext25:
  7250                           	callstack 0
  7251   0039A0                     _Lcd_Write_Char:
  7252                           	callstack 26
  7253                           
  7254                           ; BSR set to: 0
  7255                           ;incstack = 0
  7256                           ;Lcd_Write_Char@a stored from wreg
  7257   0039A0  0100               	movlb	0	; () banked
  7258   0039A2  6F62               	movwf	Lcd_Write_Char@a& (0+255),b
  7259   0039A4                     
  7260                           ;lcd.c: 88: void Lcd_Write_Char(char a);lcd.c: 89: {;lcd.c: 90:     char temp,y;;lcd.c: 
      +                          91:     temp = a&0x0F;
  7261   0039A4  0100               	movlb	0	; () banked
  7262   0039A6  5162               	movf	Lcd_Write_Char@a& (0+255),w,b
  7263   0039A8  0B0F               	andlw	15
  7264   0039AA  6F60               	movwf	Lcd_Write_Char@temp& (0+255),b
  7265                           
  7266                           ;lcd.c: 92:     y = a&0xF0;
  7267   0039AC  5162               	movf	Lcd_Write_Char@a& (0+255),w,b
  7268   0039AE  0BF0               	andlw	240
  7269   0039B0  6F61               	movwf	Lcd_Write_Char@y& (0+255),b
  7270   0039B2                     
  7271                           ; BSR set to: 0
  7272                           ;lcd.c: 93:     LATDbits.LD2 = 1;
  7273   0039B2  848C               	bsf	140,2,c	;volatile
  7274   0039B4                     
  7275                           ; BSR set to: 0
  7276                           ;lcd.c: 94:     Lcd_Port(y>>4);
  7277   0039B4  3961               	swapf	Lcd_Write_Char@y& (0+255),w,b
  7278   0039B6  0B0F               	andlw	15
  7279   0039B8  EC65  F01B         	call	_Lcd_Port
  7280   0039BC                     
  7281                           ;lcd.c: 95:     LATDbits.LD3 = 1;
  7282   0039BC  868C               	bsf	140,3,c	;volatile
  7283   0039BE                     
  7284                           ;lcd.c: 96:     _delay((unsigned long)((40)*(48000000/4000000.0)));
  7285   0039BE  0EA0               	movlw	160
  7286   0039C0                     u7267:
  7287   0039C0  2EE8               	decfsz	wreg,f,c
  7288   0039C2  D7FE               	bra	u7267
  7289   0039C4                     
  7290                           ;lcd.c: 97:     LATDbits.LD3 = 0;
  7291   0039C4  968C               	bcf	140,3,c	;volatile
  7292   0039C6                     
  7293                           ;lcd.c: 98:     Lcd_Port(temp);
  7294   0039C6  0100               	movlb	0	; () banked
  7295   0039C8  5160               	movf	Lcd_Write_Char@temp& (0+255),w,b
  7296   0039CA  EC65  F01B         	call	_Lcd_Port
  7297   0039CE                     
  7298                           ;lcd.c: 99:     LATDbits.LD3 = 1;
  7299   0039CE  868C               	bsf	140,3,c	;volatile
  7300   0039D0                     
  7301                           ;lcd.c: 100:     _delay((unsigned long)((40)*(48000000/4000000.0)));
  7302   0039D0  0EA0               	movlw	160
  7303   0039D2                     u7277:
  7304   0039D2  2EE8               	decfsz	wreg,f,c
  7305   0039D4  D7FE               	bra	u7277
  7306   0039D6                     
  7307                           ;lcd.c: 101:     LATDbits.LD3 = 0;
  7308   0039D6  968C               	bcf	140,3,c	;volatile
  7309   0039D8  0012               	return		;funcret
  7310   0039DA                     __end_of_Lcd_Write_Char:
  7311                           	callstack 0
  7312                           
  7313 ;; *************** function _Lcd_Set_Cursor *****************
  7314 ;; Defined at:
  7315 ;;		line 26 in file "lcd.c"
  7316 ;; Parameters:    Size  Location     Type
  7317 ;;  a               1    wreg     unsigned char 
  7318 ;;  b               1    1[BANK0 ] unsigned char 
  7319 ;; Auto vars:     Size  Location     Type
  7320 ;;  a               1    2[BANK0 ] unsigned char 
  7321 ;;  temp            1    5[BANK0 ] unsigned char 
  7322 ;;  y               1    4[BANK0 ] unsigned char 
  7323 ;;  z               1    3[BANK0 ] unsigned char 
  7324 ;; Return value:  Size  Location     Type
  7325 ;;                  1    wreg      void 
  7326 ;; Registers used:
  7327 ;;		wreg, status,2, status,0, cstack
  7328 ;; Tracked objects:
  7329 ;;		On entry : 0/0
  7330 ;;		On exit  : 0/0
  7331 ;;		Unchanged: 0/0
  7332 ;; Data sizes:     COMRAM   BANK0   BANK1   BANK2   BANK3   BANK4   BANK5   BANK6   BANK7
  7333 ;;      Params:         0       1       0       0       0       0       0       0       0
  7334 ;;      Locals:         0       4       0       0       0       0       0       0       0
  7335 ;;      Temps:          0       0       0       0       0       0       0       0       0
  7336 ;;      Totals:         0       5       0       0       0       0       0       0       0
  7337 ;;Total ram usage:        5 bytes
  7338 ;; Hardware stack levels used: 1
  7339 ;; Hardware stack levels required when called: 4
  7340 ;; This function calls:
  7341 ;;		_Lcd_Cmd
  7342 ;; This function is called by:
  7343 ;;		_main
  7344 ;; This function uses a non-reentrant model
  7345 ;;
  7346                           
  7347                           	psect	text26
  7348   00313E                     __ptext26:
  7349                           	callstack 0
  7350   00313E                     _Lcd_Set_Cursor:
  7351                           	callstack 26
  7352                           
  7353                           ;incstack = 0
  7354                           ;Lcd_Set_Cursor@a stored from wreg
  7355   00313E  0100               	movlb	0	; () banked
  7356   003140  6F62               	movwf	Lcd_Set_Cursor@a& (0+255),b
  7357   003142                     
  7358                           ;lcd.c: 26: void Lcd_Set_Cursor(char a, char b);lcd.c: 27: {;lcd.c: 28:     char temp,z,
      +                          y;;lcd.c: 29:     if(a == 1)
  7359   003142  0100               	movlb	0	; () banked
  7360   003144  0562               	decf	Lcd_Set_Cursor@a& (0+255),w,b
  7361   003146  A4D8               	btfss	status,2,c
  7362   003148  EFA8  F018         	goto	u6661
  7363   00314C  EFAA  F018         	goto	u6660
  7364   003150                     u6661:
  7365   003150  EFBC  F018         	goto	l5745
  7366   003154                     u6660:
  7367   003154                     
  7368                           ; BSR set to: 0
  7369                           ;lcd.c: 30:     {;lcd.c: 31:         temp = 0x80 + b - 1;
  7370   003154  5161               	movf	Lcd_Set_Cursor@b& (0+255),w,b
  7371   003156  0F7F               	addlw	127
  7372   003158  6F65               	movwf	Lcd_Set_Cursor@temp& (0+255),b
  7373                           
  7374                           ;lcd.c: 32:         z = temp>>4;
  7375   00315A  3965               	swapf	Lcd_Set_Cursor@temp& (0+255),w,b
  7376   00315C  0B0F               	andlw	15
  7377   00315E  6F63               	movwf	Lcd_Set_Cursor@z& (0+255),b
  7378                           
  7379                           ;lcd.c: 33:         y = temp & 0x0F;
  7380   003160  5165               	movf	Lcd_Set_Cursor@temp& (0+255),w,b
  7381   003162  0B0F               	andlw	15
  7382   003164  6F64               	movwf	Lcd_Set_Cursor@y& (0+255),b
  7383   003166                     
  7384                           ; BSR set to: 0
  7385                           ;lcd.c: 34:         Lcd_Cmd(z);
  7386   003166  5163               	movf	Lcd_Set_Cursor@z& (0+255),w,b
  7387   003168  EC06  F01D         	call	_Lcd_Cmd
  7388   00316C                     
  7389                           ;lcd.c: 35:         Lcd_Cmd(y);
  7390   00316C  0100               	movlb	0	; () banked
  7391   00316E  5164               	movf	Lcd_Set_Cursor@y& (0+255),w,b
  7392   003170  EC06  F01D         	call	_Lcd_Cmd
  7393                           
  7394                           ;lcd.c: 36:     }
  7395   003174  EF0D  F019         	goto	l97
  7396   003178                     l5745:
  7397                           
  7398                           ; BSR set to: 0
  7399   003178  0E02               	movlw	2
  7400   00317A  1962               	xorwf	Lcd_Set_Cursor@a& (0+255),w,b
  7401   00317C  A4D8               	btfss	status,2,c
  7402   00317E  EFC3  F018         	goto	u6671
  7403   003182  EFC5  F018         	goto	u6670
  7404   003186                     u6671:
  7405   003186  EFD7  F018         	goto	l5753
  7406   00318A                     u6670:
  7407   00318A                     
  7408                           ; BSR set to: 0
  7409                           ;lcd.c: 38:     {;lcd.c: 39:         temp = 0xC0 + b - 1;
  7410   00318A  5161               	movf	Lcd_Set_Cursor@b& (0+255),w,b
  7411   00318C  0FBF               	addlw	191
  7412   00318E  6F65               	movwf	Lcd_Set_Cursor@temp& (0+255),b
  7413                           
  7414                           ;lcd.c: 40:         z = temp>>4;
  7415   003190  3965               	swapf	Lcd_Set_Cursor@temp& (0+255),w,b
  7416   003192  0B0F               	andlw	15
  7417   003194  6F63               	movwf	Lcd_Set_Cursor@z& (0+255),b
  7418                           
  7419                           ;lcd.c: 41:         y = temp & 0x0F;
  7420   003196  5165               	movf	Lcd_Set_Cursor@temp& (0+255),w,b
  7421   003198  0B0F               	andlw	15
  7422   00319A  6F64               	movwf	Lcd_Set_Cursor@y& (0+255),b
  7423   00319C                     
  7424                           ; BSR set to: 0
  7425                           ;lcd.c: 42:         Lcd_Cmd(z);
  7426   00319C  5163               	movf	Lcd_Set_Cursor@z& (0+255),w,b
  7427   00319E  EC06  F01D         	call	_Lcd_Cmd
  7428   0031A2                     
  7429                           ;lcd.c: 43:         Lcd_Cmd(y);
  7430   0031A2  0100               	movlb	0	; () banked
  7431   0031A4  5164               	movf	Lcd_Set_Cursor@y& (0+255),w,b
  7432   0031A6  EC06  F01D         	call	_Lcd_Cmd
  7433                           
  7434                           ;lcd.c: 44:     }
  7435   0031AA  EF0D  F019         	goto	l97
  7436   0031AE                     l5753:
  7437                           
  7438                           ; BSR set to: 0
  7439   0031AE  0E03               	movlw	3
  7440   0031B0  1962               	xorwf	Lcd_Set_Cursor@a& (0+255),w,b
  7441   0031B2  A4D8               	btfss	status,2,c
  7442   0031B4  EFDE  F018         	goto	u6681
  7443   0031B8  EFE0  F018         	goto	u6680
  7444   0031BC                     u6681:
  7445   0031BC  EFF2  F018         	goto	l5761
  7446   0031C0                     u6680:
  7447   0031C0                     
  7448                           ; BSR set to: 0
  7449                           ;lcd.c: 46:     {;lcd.c: 47:         temp = 0x94 + b - 1;
  7450   0031C0  5161               	movf	Lcd_Set_Cursor@b& (0+255),w,b
  7451   0031C2  0F93               	addlw	147
  7452   0031C4  6F65               	movwf	Lcd_Set_Cursor@temp& (0+255),b
  7453                           
  7454                           ;lcd.c: 48:         z = temp>>4;
  7455   0031C6  3965               	swapf	Lcd_Set_Cursor@temp& (0+255),w,b
  7456   0031C8  0B0F               	andlw	15
  7457   0031CA  6F63               	movwf	Lcd_Set_Cursor@z& (0+255),b
  7458                           
  7459                           ;lcd.c: 49:         y = temp & 0x0F;
  7460   0031CC  5165               	movf	Lcd_Set_Cursor@temp& (0+255),w,b
  7461   0031CE  0B0F               	andlw	15
  7462   0031D0  6F64               	movwf	Lcd_Set_Cursor@y& (0+255),b
  7463   0031D2                     
  7464                           ; BSR set to: 0
  7465                           ;lcd.c: 50:         Lcd_Cmd(z);
  7466   0031D2  5163               	movf	Lcd_Set_Cursor@z& (0+255),w,b
  7467   0031D4  EC06  F01D         	call	_Lcd_Cmd
  7468   0031D8                     
  7469                           ;lcd.c: 51:         Lcd_Cmd(y);
  7470   0031D8  0100               	movlb	0	; () banked
  7471   0031DA  5164               	movf	Lcd_Set_Cursor@y& (0+255),w,b
  7472   0031DC  EC06  F01D         	call	_Lcd_Cmd
  7473                           
  7474                           ;lcd.c: 52:     }
  7475   0031E0  EF0D  F019         	goto	l97
  7476   0031E4                     l5761:
  7477                           
  7478                           ; BSR set to: 0
  7479   0031E4  0E04               	movlw	4
  7480   0031E6  1962               	xorwf	Lcd_Set_Cursor@a& (0+255),w,b
  7481   0031E8  A4D8               	btfss	status,2,c
  7482   0031EA  EFF9  F018         	goto	u6691
  7483   0031EE  EFFB  F018         	goto	u6690
  7484   0031F2                     u6691:
  7485   0031F2  EF0D  F019         	goto	l93
  7486   0031F6                     u6690:
  7487   0031F6                     
  7488                           ; BSR set to: 0
  7489                           ;lcd.c: 54:     {;lcd.c: 55:         temp = 0xD4 + b - 1;
  7490   0031F6  5161               	movf	Lcd_Set_Cursor@b& (0+255),w,b
  7491   0031F8  0FD3               	addlw	211
  7492   0031FA  6F65               	movwf	Lcd_Set_Cursor@temp& (0+255),b
  7493                           
  7494                           ;lcd.c: 56:         z = temp>>4;
  7495   0031FC  3965               	swapf	Lcd_Set_Cursor@temp& (0+255),w,b
  7496   0031FE  0B0F               	andlw	15
  7497   003200  6F63               	movwf	Lcd_Set_Cursor@z& (0+255),b
  7498                           
  7499                           ;lcd.c: 57:         y = temp & 0x0F;
  7500   003202  5165               	movf	Lcd_Set_Cursor@temp& (0+255),w,b
  7501   003204  0B0F               	andlw	15
  7502   003206  6F64               	movwf	Lcd_Set_Cursor@y& (0+255),b
  7503   003208                     
  7504                           ; BSR set to: 0
  7505                           ;lcd.c: 58:         Lcd_Cmd(z);
  7506   003208  5163               	movf	Lcd_Set_Cursor@z& (0+255),w,b
  7507   00320A  EC06  F01D         	call	_Lcd_Cmd
  7508   00320E                     
  7509                           ;lcd.c: 59:         Lcd_Cmd(y);
  7510   00320E  0100               	movlb	0	; () banked
  7511   003210  5164               	movf	Lcd_Set_Cursor@y& (0+255),w,b
  7512   003212  EC06  F01D         	call	_Lcd_Cmd
  7513   003216  EF0D  F019         	goto	l97
  7514   00321A                     l93:
  7515   00321A                     l97:
  7516   00321A  0012               	return		;funcret
  7517   00321C                     __end_of_Lcd_Set_Cursor:
  7518                           	callstack 0
  7519                           
  7520 ;; *************** function _Lcd_Init *****************
  7521 ;; Defined at:
  7522 ;;		line 63 in file "lcd.c"
  7523 ;; Parameters:    Size  Location     Type
  7524 ;;		None
  7525 ;; Auto vars:     Size  Location     Type
  7526 ;;		None
  7527 ;; Return value:  Size  Location     Type
  7528 ;;                  1    wreg      void 
  7529 ;; Registers used:
  7530 ;;		wreg, status,2, cstack
  7531 ;; Tracked objects:
  7532 ;;		On entry : 0/0
  7533 ;;		On exit  : 0/0
  7534 ;;		Unchanged: 0/0
  7535 ;; Data sizes:     COMRAM   BANK0   BANK1   BANK2   BANK3   BANK4   BANK5   BANK6   BANK7
  7536 ;;      Params:         0       0       0       0       0       0       0       0       0
  7537 ;;      Locals:         0       0       0       0       0       0       0       0       0
  7538 ;;      Temps:          0       2       0       0       0       0       0       0       0
  7539 ;;      Totals:         0       2       0       0       0       0       0       0       0
  7540 ;;Total ram usage:        2 bytes
  7541 ;; Hardware stack levels used: 1
  7542 ;; Hardware stack levels required when called: 5
  7543 ;; This function calls:
  7544 ;;		_Lcd_Clear
  7545 ;;		_Lcd_Cmd
  7546 ;;		_Lcd_Port
  7547 ;; This function is called by:
  7548 ;;		_main
  7549 ;; This function uses a non-reentrant model
  7550 ;;
  7551                           
  7552                           	psect	text27
  7553   0034EE                     __ptext27:
  7554                           	callstack 0
  7555   0034EE                     _Lcd_Init:
  7556                           	callstack 25
  7557   0034EE                     
  7558                           ;lcd.c: 65:  TRISDbits.TRISD2 = 0;
  7559   0034EE  9495               	bcf	149,2,c	;volatile
  7560                           
  7561                           ;lcd.c: 66:  TRISDbits.TRISD3 = 0;
  7562   0034F0  9695               	bcf	149,3,c	;volatile
  7563                           
  7564                           ;lcd.c: 67:  TRISDbits.TRISD4 = 0;
  7565   0034F2  9895               	bcf	149,4,c	;volatile
  7566                           
  7567                           ;lcd.c: 68:  TRISDbits.TRISD5 = 0;
  7568   0034F4  9A95               	bcf	149,5,c	;volatile
  7569                           
  7570                           ;lcd.c: 69:  TRISDbits.TRISD6 = 0;
  7571   0034F6  9C95               	bcf	149,6,c	;volatile
  7572                           
  7573                           ;lcd.c: 70:  TRISDbits.TRISD7 = 0;
  7574   0034F8  9E95               	bcf	149,7,c	;volatile
  7575   0034FA                     
  7576                           ;lcd.c: 71:     Lcd_Port(0x00);
  7577   0034FA  0E00               	movlw	0
  7578   0034FC  EC65  F01B         	call	_Lcd_Port
  7579   003500                     
  7580                           ;lcd.c: 72:     _delay((unsigned long)((20)*(48000000/4000.0)));
  7581   003500  0E02               	movlw	2
  7582   003502  0100               	movlb	0	; () banked
  7583   003504  6F62               	movwf	(??_Lcd_Init+1)& (0+255),b
  7584   003506  0E38               	movlw	56
  7585   003508  6F61               	movwf	??_Lcd_Init& (0+255),b
  7586   00350A  0EAD               	movlw	173
  7587   00350C                     u7287:
  7588   00350C  2EE8               	decfsz	wreg,f,c
  7589   00350E  D7FE               	bra	u7287
  7590   003510  2F61               	decfsz	??_Lcd_Init& (0+255),f,b
  7591   003512  D7FC               	bra	u7287
  7592   003514  2F62               	decfsz	(??_Lcd_Init+1)& (0+255),f,b
  7593   003516  D7FA               	bra	u7287
  7594   003518                     
  7595                           ;lcd.c: 73:     Lcd_Cmd(0x03);
  7596   003518  0E03               	movlw	3
  7597   00351A  EC06  F01D         	call	_Lcd_Cmd
  7598   00351E                     
  7599                           ;lcd.c: 74:     _delay((unsigned long)((5)*(48000000/4000.0)));
  7600   00351E  0E4E               	movlw	78
  7601   003520  0100               	movlb	0	; () banked
  7602   003522  6F61               	movwf	??_Lcd_Init& (0+255),b
  7603   003524  0EEB               	movlw	235
  7604   003526                     u7297:
  7605   003526  2EE8               	decfsz	wreg,f,c
  7606   003528  D7FE               	bra	u7297
  7607   00352A  2F61               	decfsz	??_Lcd_Init& (0+255),f,b
  7608   00352C  D7FC               	bra	u7297
  7609   00352E                     
  7610                           ;lcd.c: 75:     Lcd_Cmd(0x03);
  7611   00352E  0E03               	movlw	3
  7612   003530  EC06  F01D         	call	_Lcd_Cmd
  7613   003534                     
  7614                           ;lcd.c: 76:     _delay((unsigned long)((11)*(48000000/4000.0)));
  7615   003534  0EAC               	movlw	172
  7616   003536  0100               	movlb	0	; () banked
  7617   003538  6F61               	movwf	??_Lcd_Init& (0+255),b
  7618   00353A  0E6C               	movlw	108
  7619   00353C                     u7307:
  7620   00353C  2EE8               	decfsz	wreg,f,c
  7621   00353E  D7FE               	bra	u7307
  7622   003540  2F61               	decfsz	??_Lcd_Init& (0+255),f,b
  7623   003542  D7FC               	bra	u7307
  7624   003544  0000               	nop	
  7625   003546                     
  7626                           ;lcd.c: 77:     Lcd_Cmd(0x03);
  7627   003546  0E03               	movlw	3
  7628   003548  EC06  F01D         	call	_Lcd_Cmd
  7629   00354C                     
  7630                           ;lcd.c: 78:     Lcd_Cmd(0x02);
  7631   00354C  0E02               	movlw	2
  7632   00354E  EC06  F01D         	call	_Lcd_Cmd
  7633   003552                     
  7634                           ;lcd.c: 79:     Lcd_Cmd(0x02);
  7635   003552  0E02               	movlw	2
  7636   003554  EC06  F01D         	call	_Lcd_Cmd
  7637   003558                     
  7638                           ;lcd.c: 80:     Lcd_Cmd(0x08);
  7639   003558  0E08               	movlw	8
  7640   00355A  EC06  F01D         	call	_Lcd_Cmd
  7641   00355E                     
  7642                           ;lcd.c: 81:     Lcd_Cmd(0x00);
  7643   00355E  0E00               	movlw	0
  7644   003560  EC06  F01D         	call	_Lcd_Cmd
  7645   003564                     
  7646                           ;lcd.c: 82:     Lcd_Cmd(0x0C);
  7647   003564  0E0C               	movlw	12
  7648   003566  EC06  F01D         	call	_Lcd_Cmd
  7649   00356A                     
  7650                           ;lcd.c: 83:     Lcd_Cmd(0x00);
  7651   00356A  0E00               	movlw	0
  7652   00356C  EC06  F01D         	call	_Lcd_Cmd
  7653   003570                     
  7654                           ;lcd.c: 84:     Lcd_Cmd(0x06);
  7655   003570  0E06               	movlw	6
  7656   003572  EC06  F01D         	call	_Lcd_Cmd
  7657   003576                     
  7658                           ;lcd.c: 85:     Lcd_Clear();
  7659   003576  EC18  F01D         	call	_Lcd_Clear	;wreg free
  7660   00357A  0012               	return		;funcret
  7661   00357C                     __end_of_Lcd_Init:
  7662                           	callstack 0
  7663                           
  7664 ;; *************** function _Lcd_Clear *****************
  7665 ;; Defined at:
  7666 ;;		line 20 in file "lcd.c"
  7667 ;; Parameters:    Size  Location     Type
  7668 ;;		None
  7669 ;; Auto vars:     Size  Location     Type
  7670 ;;		None
  7671 ;; Return value:  Size  Location     Type
  7672 ;;                  1    wreg      void 
  7673 ;; Registers used:
  7674 ;;		wreg, status,2, cstack
  7675 ;; Tracked objects:
  7676 ;;		On entry : 0/0
  7677 ;;		On exit  : 0/0
  7678 ;;		Unchanged: 0/0
  7679 ;; Data sizes:     COMRAM   BANK0   BANK1   BANK2   BANK3   BANK4   BANK5   BANK6   BANK7
  7680 ;;      Params:         0       0       0       0       0       0       0       0       0
  7681 ;;      Locals:         0       0       0       0       0       0       0       0       0
  7682 ;;      Temps:          0       0       0       0       0       0       0       0       0
  7683 ;;      Totals:         0       0       0       0       0       0       0       0       0
  7684 ;;Total ram usage:        0 bytes
  7685 ;; Hardware stack levels used: 1
  7686 ;; Hardware stack levels required when called: 4
  7687 ;; This function calls:
  7688 ;;		_Lcd_Cmd
  7689 ;; This function is called by:
  7690 ;;		_main
  7691 ;;		_Lcd_Init
  7692 ;; This function uses a non-reentrant model
  7693 ;;
  7694                           
  7695                           	psect	text28
  7696   003A30                     __ptext28:
  7697                           	callstack 0
  7698   003A30                     _Lcd_Clear:
  7699                           	callstack 25
  7700   003A30                     
  7701                           ;lcd.c: 22:     Lcd_Cmd(0);
  7702   003A30  0E00               	movlw	0
  7703   003A32  EC06  F01D         	call	_Lcd_Cmd
  7704                           
  7705                           ;lcd.c: 23:     Lcd_Cmd(1);
  7706   003A36  0E01               	movlw	1
  7707   003A38  EC06  F01D         	call	_Lcd_Cmd
  7708   003A3C  0012               	return		;funcret
  7709   003A3E                     __end_of_Lcd_Clear:
  7710                           	callstack 0
  7711                           
  7712 ;; *************** function _Lcd_Cmd *****************
  7713 ;; Defined at:
  7714 ;;		line 11 in file "lcd.c"
  7715 ;; Parameters:    Size  Location     Type
  7716 ;;  a               1    wreg     unsigned char 
  7717 ;; Auto vars:     Size  Location     Type
  7718 ;;  a               1    0[BANK0 ] unsigned char 
  7719 ;; Return value:  Size  Location     Type
  7720 ;;                  1    wreg      void 
  7721 ;; Registers used:
  7722 ;;		wreg, status,2, cstack
  7723 ;; Tracked objects:
  7724 ;;		On entry : 0/0
  7725 ;;		On exit  : 0/0
  7726 ;;		Unchanged: 0/0
  7727 ;; Data sizes:     COMRAM   BANK0   BANK1   BANK2   BANK3   BANK4   BANK5   BANK6   BANK7
  7728 ;;      Params:         0       0       0       0       0       0       0       0       0
  7729 ;;      Locals:         0       1       0       0       0       0       0       0       0
  7730 ;;      Temps:          1       0       0       0       0       0       0       0       0
  7731 ;;      Totals:         1       1       0       0       0       0       0       0       0
  7732 ;;Total ram usage:        2 bytes
  7733 ;; Hardware stack levels used: 1
  7734 ;; Hardware stack levels required when called: 3
  7735 ;; This function calls:
  7736 ;;		_Lcd_Port
  7737 ;; This function is called by:
  7738 ;;		_Lcd_Clear
  7739 ;;		_Lcd_Set_Cursor
  7740 ;;		_Lcd_Init
  7741 ;;		_Lcd_Shift_Right
  7742 ;;		_Lcd_Shift_Left
  7743 ;;		_Lcd_Blink
  7744 ;;		_Lcd_NoBlink
  7745 ;;		_Lcd_CGRAM_Init
  7746 ;;		_Lcd_CGRAM_Close
  7747 ;; This function uses a non-reentrant model
  7748 ;;
  7749                           
  7750                           	psect	text29
  7751   003A0C                     __ptext29:
  7752                           	callstack 0
  7753   003A0C                     _Lcd_Cmd:
  7754                           	callstack 26
  7755                           
  7756                           ;incstack = 0
  7757                           ;Lcd_Cmd@a stored from wreg
  7758   003A0C  0100               	movlb	0	; () banked
  7759   003A0E  6F60               	movwf	Lcd_Cmd@a& (0+255),b
  7760   003A10                     
  7761                           ;lcd.c: 11: void Lcd_Cmd(char a);lcd.c: 12: {;lcd.c: 13:     LATDbits.LD2 = 0;
  7762   003A10  948C               	bcf	140,2,c	;volatile
  7763   003A12                     
  7764                           ;lcd.c: 14:     Lcd_Port(a);
  7765   003A12  0100               	movlb	0	; () banked
  7766   003A14  5160               	movf	Lcd_Cmd@a& (0+255),w,b
  7767   003A16  EC65  F01B         	call	_Lcd_Port
  7768   003A1A                     
  7769                           ;lcd.c: 15:     LATDbits.LD3 = 1;
  7770   003A1A  868C               	bsf	140,3,c	;volatile
  7771   003A1C                     
  7772                           ;lcd.c: 16:     _delay((unsigned long)((4)*(48000000/4000.0)));
  7773   003A1C  0E3F               	movlw	63
  7774   003A1E  6E2D               	movwf	??_Lcd_Cmd^0,c
  7775   003A20  0E55               	movlw	85
  7776   003A22                     u7317:
  7777   003A22  2EE8               	decfsz	wreg,f,c
  7778   003A24  D7FE               	bra	u7317
  7779   003A26  2E2D               	decfsz	??_Lcd_Cmd^0,f,c
  7780   003A28  D7FC               	bra	u7317
  7781   003A2A  0000               	nop	
  7782   003A2C                     
  7783                           ;lcd.c: 17:     LATDbits.LD3 = 0;
  7784   003A2C  968C               	bcf	140,3,c	;volatile
  7785   003A2E  0012               	return		;funcret
  7786   003A30                     __end_of_Lcd_Cmd:
  7787                           	callstack 0
  7788                           
  7789 ;; *************** function _Lcd_Port *****************
  7790 ;; Defined at:
  7791 ;;		line 3 in file "lcd.c"
  7792 ;; Parameters:    Size  Location     Type
  7793 ;;  a               1    wreg     unsigned char 
  7794 ;; Auto vars:     Size  Location     Type
  7795 ;;  a               1   43[COMRAM] unsigned char 
  7796 ;; Return value:  Size  Location     Type
  7797 ;;                  1    wreg      void 
  7798 ;; Registers used:
  7799 ;;		wreg
  7800 ;; Tracked objects:
  7801 ;;		On entry : 0/0
  7802 ;;		On exit  : 0/0
  7803 ;;		Unchanged: 0/0
  7804 ;; Data sizes:     COMRAM   BANK0   BANK1   BANK2   BANK3   BANK4   BANK5   BANK6   BANK7
  7805 ;;      Params:         0       0       0       0       0       0       0       0       0
  7806 ;;      Locals:         1       0       0       0       0       0       0       0       0
  7807 ;;      Temps:          0       0       0       0       0       0       0       0       0
  7808 ;;      Totals:         1       0       0       0       0       0       0       0       0
  7809 ;;Total ram usage:        1 bytes
  7810 ;; Hardware stack levels used: 1
  7811 ;; Hardware stack levels required when called: 2
  7812 ;; This function calls:
  7813 ;;		Nothing
  7814 ;; This function is called by:
  7815 ;;		_Lcd_Cmd
  7816 ;;		_Lcd_Init
  7817 ;;		_Lcd_Write_Char
  7818 ;; This function uses a non-reentrant model
  7819 ;;
  7820                           
  7821                           	psect	text30
  7822   0036CA                     __ptext30:
  7823                           	callstack 0
  7824   0036CA                     _Lcd_Port:
  7825                           	callstack 26
  7826                           
  7827                           ;incstack = 0
  7828                           ;Lcd_Port@a stored from wreg
  7829   0036CA  6E2C               	movwf	Lcd_Port@a^0,c
  7830   0036CC                     
  7831                           ;lcd.c: 3: void Lcd_Port(char a);lcd.c: 4: {;lcd.c: 5:     (a & 1) ? (LATDbits.LD4 = 1) 
      +                          : (LATDbits.LD4 = 0);
  7832   0036CC  A02C               	btfss	Lcd_Port@a^0,0,c
  7833   0036CE  EF6B  F01B         	goto	u6171
  7834   0036D2  EF6D  F01B         	goto	u6170
  7835   0036D6                     u6171:
  7836   0036D6  EF70  F01B         	goto	l66
  7837   0036DA                     u6170:
  7838   0036DA  888C               	bsf	140,4,c	;volatile
  7839   0036DC  EF71  F01B         	goto	l5295
  7840   0036E0                     l66:
  7841   0036E0  988C               	bcf	140,4,c	;volatile
  7842   0036E2                     l5295:
  7843                           
  7844                           ;lcd.c: 6:     (a & 2) ? (LATDbits.LD5 = 1) : (LATDbits.LD5 = 0);
  7845   0036E2  A22C               	btfss	Lcd_Port@a^0,1,c
  7846   0036E4  EF76  F01B         	goto	u6181
  7847   0036E8  EF78  F01B         	goto	u6180
  7848   0036EC                     u6181:
  7849   0036EC  EF7B  F01B         	goto	l70
  7850   0036F0                     u6180:
  7851   0036F0  8A8C               	bsf	140,5,c	;volatile
  7852   0036F2  EF7C  F01B         	goto	l5299
  7853   0036F6                     l70:
  7854   0036F6  9A8C               	bcf	140,5,c	;volatile
  7855   0036F8                     l5299:
  7856                           
  7857                           ;lcd.c: 7:     (a & 4) ? (LATDbits.LD6 = 1) : (LATDbits.LD6 = 0);
  7858   0036F8  A42C               	btfss	Lcd_Port@a^0,2,c
  7859   0036FA  EF81  F01B         	goto	u6191
  7860   0036FE  EF83  F01B         	goto	u6190
  7861   003702                     u6191:
  7862   003702  EF86  F01B         	goto	l74
  7863   003706                     u6190:
  7864   003706  8C8C               	bsf	140,6,c	;volatile
  7865   003708  EF87  F01B         	goto	l5303
  7866   00370C                     l74:
  7867   00370C  9C8C               	bcf	140,6,c	;volatile
  7868   00370E                     l5303:
  7869                           
  7870                           ;lcd.c: 8:     (a & 8) ? (LATDbits.LD7 = 1) : (LATDbits.LD7 = 0);
  7871   00370E  A62C               	btfss	Lcd_Port@a^0,3,c
  7872   003710  EF8C  F01B         	goto	u6201
  7873   003714  EF8E  F01B         	goto	u6200
  7874   003718                     u6201:
  7875   003718  EF91  F01B         	goto	l78
  7876   00371C                     u6200:
  7877   00371C  8E8C               	bsf	140,7,c	;volatile
  7878   00371E  EF92  F01B         	goto	l81
  7879   003722                     l78:
  7880   003722  9E8C               	bcf	140,7,c	;volatile
  7881   003724                     l81:
  7882   003724  0012               	return		;funcret
  7883   003726                     __end_of_Lcd_Port:
  7884                           	callstack 0
  7885                           
  7886 ;; *************** function _INT_CCP1 *****************
  7887 ;; Defined at:
  7888 ;;		line 52 in file "ccp_captura.c"
  7889 ;; Parameters:    Size  Location     Type
  7890 ;;		None
  7891 ;; Auto vars:     Size  Location     Type
  7892 ;;		None
  7893 ;; Return value:  Size  Location     Type
  7894 ;;                  1    wreg      void 
  7895 ;; Registers used:
  7896 ;;		wreg, status,2, status,0, prodl, prodh, cstack
  7897 ;; Tracked objects:
  7898 ;;		On entry : 0/0
  7899 ;;		On exit  : 0/0
  7900 ;;		Unchanged: 0/0
  7901 ;; Data sizes:     COMRAM   BANK0   BANK1   BANK2   BANK3   BANK4   BANK5   BANK6   BANK7
  7902 ;;      Params:         0       0       0       0       0       0       0       0       0
  7903 ;;      Locals:         0       0       0       0       0       0       0       0       0
  7904 ;;      Temps:          4       0       0       0       0       0       0       0       0
  7905 ;;      Totals:         4       0       0       0       0       0       0       0       0
  7906 ;;Total ram usage:        4 bytes
  7907 ;; Hardware stack levels used: 1
  7908 ;; Hardware stack levels required when called: 1
  7909 ;; This function calls:
  7910 ;;		___xxtofl
  7911 ;;		i2___fldiv
  7912 ;;		i2___flmul
  7913 ;;		i2___fltol
  7914 ;; This function is called by:
  7915 ;;		Interrupt level 2
  7916 ;; This function uses a non-reentrant model
  7917 ;;
  7918                           
  7919                           	psect	intcode
  7920   000008                     __pintcode:
  7921                           	callstack 0
  7922   000008                     _INT_CCP1:
  7923                           	callstack 21
  7924                           
  7925                           ;incstack = 0
  7926   000008  8234               	bsf	int$flags,1,c	;set compiler interrupt flag (level 2)
  7927   00000A  ED0E  F019         	call	int_func,f	;refresh shadow registers
  7928                           
  7929                           	psect	intcode_body
  7930   00321C                     __pintcode_body:
  7931                           	callstack 21
  7932   00321C                     int_func:
  7933                           	callstack 21
  7934   00321C  0006               	pop		; remove dummy address from shadow register refresh
  7935   00321E  CFF3 F02A          	movff	prodl,??_INT_CCP1+2
  7936   003222  CFF4 F02B          	movff	prodh,??_INT_CCP1+3
  7937   003226                     
  7938                           ;ccp_captura.c: 53:     if (PIR1bits.CCP1IF == 1) {
  7939   003226  A49E               	btfss	158,2,c	;volatile
  7940   003228  EF18  F019         	goto	i2u484_41
  7941   00322C  EF1A  F019         	goto	i2u484_40
  7942   003230                     i2u484_41:
  7943   003230  EF6B  F019         	goto	i2l56
  7944   003234                     i2u484_40:
  7945   003234                     
  7946                           ;ccp_captura.c: 54:         valor_pasos = (CCPR1H << 8) + CCPR1L;
  7947   003234  50BF               	movf	191,w,c	;volatile
  7948   003236  6E29               	movwf	(??_INT_CCP1+1)^0,c
  7949   003238  6A28               	clrf	??_INT_CCP1^0,c
  7950   00323A  50BE               	movf	190,w,c	;volatile
  7951   00323C  2428               	addwf	??_INT_CCP1^0,w,c
  7952   00323E  6E32               	movwf	_valor_pasos^0,c
  7953   003240  0E00               	movlw	0
  7954   003242  2029               	addwfc	(??_INT_CCP1+1)^0,w,c
  7955   003244  6E33               	movwf	(_valor_pasos+1)^0,c
  7956   003246                     
  7957                           ;ccp_captura.c: 55:         TMR1H = 0x00;
  7958   003246  0E00               	movlw	0
  7959   003248  6ECF               	movwf	207,c	;volatile
  7960   00324A                     
  7961                           ;ccp_captura.c: 56:         TMR1L = 0x00;
  7962   00324A  0E00               	movlw	0
  7963   00324C  6ECE               	movwf	206,c	;volatile
  7964   00324E                     
  7965                           ;ccp_captura.c: 57:         periodo = valor_pasos * 0.000000666;
  7966   00324E  C032  F001         	movff	_valor_pasos,___xxtofl@val
  7967   003252  C033  F002         	movff	_valor_pasos+1,___xxtofl@val+1
  7968   003256  6A03               	clrf	(___xxtofl@val+2)^0,c
  7969   003258  6A04               	clrf	(___xxtofl@val+3)^0,c
  7970   00325A  0E00               	movlw	0
  7971   00325C  ECBB  F015         	call	___xxtofl
  7972   003260  C001  F00F         	movff	?___xxtofl,i2___flmul@b
  7973   003264  C002  F010         	movff	?___xxtofl+1,i2___flmul@b+1
  7974   003268  C003  F011         	movff	?___xxtofl+2,i2___flmul@b+2
  7975   00326C  C004  F012         	movff	?___xxtofl+3,i2___flmul@b+3
  7976   003270  0E2C               	movlw	44
  7977   003272  6E13               	movwf	i2___flmul@a^0,c
  7978   003274  0EC7               	movlw	199
  7979   003276  6E14               	movwf	(i2___flmul@a+1)^0,c
  7980   003278  0E32               	movlw	50
  7981   00327A  6E15               	movwf	(i2___flmul@a+2)^0,c
  7982   00327C  0E35               	movlw	53
  7983   00327E  6E16               	movwf	(i2___flmul@a+3)^0,c
  7984   003280  EC7E  F00D         	call	i2___flmul	;wreg free
  7985   003284  C00F  F0FC         	movff	?i2___flmul,_periodo
  7986   003288  C010  F0FD         	movff	?i2___flmul+1,_periodo+1
  7987   00328C  C011  F0FE         	movff	?i2___flmul+2,_periodo+2
  7988   003290  C012  F0FF         	movff	?i2___flmul+3,_periodo+3
  7989   003294                     
  7990                           ;ccp_captura.c: 58:         frecuencia = 1 / periodo;
  7991   003294  C0FC  F005         	movff	_periodo,i2___fldiv@a
  7992   003298  C0FD  F006         	movff	_periodo+1,i2___fldiv@a+1
  7993   00329C  C0FE  F007         	movff	_periodo+2,i2___fldiv@a+2
  7994   0032A0  C0FF  F008         	movff	_periodo+3,i2___fldiv@a+3
  7995   0032A4  0E00               	movlw	0
  7996   0032A6  6E01               	movwf	i2___fldiv@b^0,c
  7997   0032A8  0E00               	movlw	0
  7998   0032AA  6E02               	movwf	(i2___fldiv@b+1)^0,c
  7999   0032AC  0E80               	movlw	128
  8000   0032AE  6E03               	movwf	(i2___fldiv@b+2)^0,c
  8001   0032B0  0E3F               	movlw	63
  8002   0032B2  6E04               	movwf	(i2___fldiv@b+3)^0,c
  8003   0032B4  EC61  F011         	call	i2___fldiv	;wreg free
  8004   0032B8  C001  F01A         	movff	?i2___fldiv,i2___fltol@f1
  8005   0032BC  C002  F01B         	movff	?i2___fldiv+1,i2___fltol@f1+1
  8006   0032C0  C003  F01C         	movff	?i2___fldiv+2,i2___fltol@f1+2
  8007   0032C4  C004  F01D         	movff	?i2___fldiv+3,i2___fltol@f1+3
  8008   0032C8  EC9C  F017         	call	i2___fltol	;wreg free
  8009   0032CC  C01A  F0E5         	movff	?i2___fltol,_frecuencia
  8010   0032D0  C01B  F0E6         	movff	?i2___fltol+1,_frecuencia+1
  8011   0032D4                     
  8012                           ;ccp_captura.c: 59:         PIR1bits.CCP1IF = 0;
  8013   0032D4  949E               	bcf	158,2,c	;volatile
  8014   0032D6                     i2l56:
  8015   0032D6  C02B  FFF4         	movff	??_INT_CCP1+3,prodh
  8016   0032DA  C02A  FFF3         	movff	??_INT_CCP1+2,prodl
  8017   0032DE  9234               	bcf	int$flags,1,c	;clear compiler interrupt flag (level 2)
  8018   0032E0  0011               	retfie		f
  8019   0032E2                     __end_of_INT_CCP1:
  8020                           	callstack 0
  8021                           
  8022 ;; *************** function i2___fltol *****************
  8023 ;; Defined at:
  8024 ;;		line 43 in file "C:\Program Files\Microchip\xc8\v2.45\pic\sources\c99\common\fltol.c"
  8025 ;; Parameters:    Size  Location     Type
  8026 ;;  f1              4   25[COMRAM] void 
  8027 ;; Auto vars:     Size  Location     Type
  8028 ;;  exp1            1   34[COMRAM] unsigned char 
  8029 ;;  sign1           1   33[COMRAM] unsigned char 
  8030 ;; Return value:  Size  Location     Type
  8031 ;;                  4   25[COMRAM] long 
  8032 ;; Registers used:
  8033 ;;		wreg, status,2, status,0
  8034 ;; Tracked objects:
  8035 ;;		On entry : 0/0
  8036 ;;		On exit  : 0/0
  8037 ;;		Unchanged: 0/0
  8038 ;; Data sizes:     COMRAM   BANK0   BANK1   BANK2   BANK3   BANK4   BANK5   BANK6   BANK7
  8039 ;;      Params:         4       0       0       0       0       0       0       0       0
  8040 ;;      Locals:         2       0       0       0       0       0       0       0       0
  8041 ;;      Temps:          4       0       0       0       0       0       0       0       0
  8042 ;;      Totals:        10       0       0       0       0       0       0       0       0
  8043 ;;Total ram usage:       10 bytes
  8044 ;; Hardware stack levels used: 1
  8045 ;; This function calls:
  8046 ;;		Nothing
  8047 ;; This function is called by:
  8048 ;;		_INT_CCP1
  8049 ;; This function uses a non-reentrant model
  8050 ;;
  8051                           
  8052                           	psect	text32
  8053   002F38                     __ptext32:
  8054                           	callstack 0
  8055   002F38                     i2___fltol:
  8056                           	callstack 21
  8057   002F38  341C               	rlcf	(i2___fltol@f1+2)^0,w,c
  8058   002F3A  341D               	rlcf	(i2___fltol@f1+3)^0,w,c
  8059   002F3C  6E23               	movwf	i2___fltol@exp1^0,c
  8060   002F3E  5023               	movf	i2___fltol@exp1^0,w,c
  8061   002F40  A4D8               	btfss	status,2,c
  8062   002F42  EFA5  F017         	goto	i2u435_41
  8063   002F46  EFA7  F017         	goto	i2u435_40
  8064   002F4A                     i2u435_41:
  8065   002F4A  EFB1  F017         	goto	i2l4069
  8066   002F4E                     i2u435_40:
  8067   002F4E                     i2l4065:
  8068   002F4E  0E00               	movlw	0
  8069   002F50  6E1A               	movwf	?i2___fltol^0,c
  8070   002F52  0E00               	movlw	0
  8071   002F54  6E1B               	movwf	(?i2___fltol+1)^0,c
  8072   002F56  0E00               	movlw	0
  8073   002F58  6E1C               	movwf	(?i2___fltol+2)^0,c
  8074   002F5A  0E00               	movlw	0
  8075   002F5C  6E1D               	movwf	(?i2___fltol+3)^0,c
  8076   002F5E  EF1E  F018         	goto	i2l456
  8077   002F62                     i2l4069:
  8078   002F62  C01A  F01E         	movff	i2___fltol@f1,??i2___fltol
  8079   002F66  C01B  F01F         	movff	i2___fltol@f1+1,??i2___fltol+1
  8080   002F6A  C01C  F020         	movff	i2___fltol@f1+2,??i2___fltol+2
  8081   002F6E  C01D  F021         	movff	i2___fltol@f1+3,??i2___fltol+3
  8082   002F72  0E20               	movlw	32
  8083   002F74  EFC1  F017         	goto	i2u436_40
  8084   002F78                     i2u436_45:
  8085   002F78  90D8               	bcf	status,0,c
  8086   002F7A  3221               	rrcf	(??i2___fltol+3)^0,f,c
  8087   002F7C  3220               	rrcf	(??i2___fltol+2)^0,f,c
  8088   002F7E  321F               	rrcf	(??i2___fltol+1)^0,f,c
  8089   002F80  321E               	rrcf	??i2___fltol^0,f,c
  8090   002F82                     i2u436_40:
  8091   002F82  2EE8               	decfsz	wreg,f,c
  8092   002F84  EFBC  F017         	goto	i2u436_45
  8093   002F88  501E               	movf	??i2___fltol^0,w,c
  8094   002F8A  6E22               	movwf	i2___fltol@sign1^0,c
  8095   002F8C  8E1C               	bsf	(i2___fltol@f1+2)^0,7,c
  8096   002F8E  0EFF               	movlw	255
  8097   002F90  161A               	andwf	i2___fltol@f1^0,f,c
  8098   002F92  0EFF               	movlw	255
  8099   002F94  161B               	andwf	(i2___fltol@f1+1)^0,f,c
  8100   002F96  0EFF               	movlw	255
  8101   002F98  161C               	andwf	(i2___fltol@f1+2)^0,f,c
  8102   002F9A  0E00               	movlw	0
  8103   002F9C  161D               	andwf	(i2___fltol@f1+3)^0,f,c
  8104   002F9E  0E96               	movlw	150
  8105   002FA0  5E23               	subwf	i2___fltol@exp1^0,f,c
  8106   002FA2  BE23               	btfsc	i2___fltol@exp1^0,7,c
  8107   002FA4  EFD8  F017         	goto	i2u437_40
  8108   002FA8  EFD6  F017         	goto	i2u437_41
  8109   002FAC                     i2u437_41:
  8110   002FAC  EFEE  F017         	goto	i2l4089
  8111   002FB0                     i2u437_40:
  8112   002FB0  5023               	movf	i2___fltol@exp1^0,w,c
  8113   002FB2  0A80               	xorlw	128
  8114   002FB4  0F97               	addlw	151
  8115   002FB6  B0D8               	btfsc	status,0,c
  8116   002FB8  EFE0  F017         	goto	i2u438_41
  8117   002FBC  EFE2  F017         	goto	i2u438_40
  8118   002FC0                     i2u438_41:
  8119   002FC0  EFE4  F017         	goto	i2l4085
  8120   002FC4                     i2u438_40:
  8121   002FC4  EFA7  F017         	goto	i2l4065
  8122   002FC8                     i2l4085:
  8123   002FC8  90D8               	bcf	status,0,c
  8124   002FCA  321D               	rrcf	(i2___fltol@f1+3)^0,f,c
  8125   002FCC  321C               	rrcf	(i2___fltol@f1+2)^0,f,c
  8126   002FCE  321B               	rrcf	(i2___fltol@f1+1)^0,f,c
  8127   002FD0  321A               	rrcf	i2___fltol@f1^0,f,c
  8128   002FD2  3E23               	incfsz	i2___fltol@exp1^0,f,c
  8129   002FD4  EFE4  F017         	goto	i2l4085
  8130   002FD8  EF06  F018         	goto	i2l4099
  8131   002FDC                     i2l4089:
  8132   002FDC  0E1F               	movlw	31
  8133   002FDE  6423               	cpfsgt	i2___fltol@exp1^0,c
  8134   002FE0  EFF4  F017         	goto	i2u439_41
  8135   002FE4  EFF6  F017         	goto	i2u439_40
  8136   002FE8                     i2u439_41:
  8137   002FE8  EFFE  F017         	goto	i2l4097
  8138   002FEC                     i2u439_40:
  8139   002FEC  EFA7  F017         	goto	i2l4065
  8140   002FF0                     i2l4095:
  8141   002FF0  90D8               	bcf	status,0,c
  8142   002FF2  361A               	rlcf	i2___fltol@f1^0,f,c
  8143   002FF4  361B               	rlcf	(i2___fltol@f1+1)^0,f,c
  8144   002FF6  361C               	rlcf	(i2___fltol@f1+2)^0,f,c
  8145   002FF8  361D               	rlcf	(i2___fltol@f1+3)^0,f,c
  8146   002FFA  0623               	decf	i2___fltol@exp1^0,f,c
  8147   002FFC                     i2l4097:
  8148   002FFC  5023               	movf	i2___fltol@exp1^0,w,c
  8149   002FFE  A4D8               	btfss	status,2,c
  8150   003000  EF04  F018         	goto	i2u440_41
  8151   003004  EF06  F018         	goto	i2u440_40
  8152   003008                     i2u440_41:
  8153   003008  EFF8  F017         	goto	i2l4095
  8154   00300C                     i2u440_40:
  8155   00300C                     i2l4099:
  8156   00300C  5022               	movf	i2___fltol@sign1^0,w,c
  8157   00300E  B4D8               	btfsc	status,2,c
  8158   003010  EF0C  F018         	goto	i2u441_41
  8159   003014  EF0E  F018         	goto	i2u441_40
  8160   003018                     i2u441_41:
  8161   003018  EF16  F018         	goto	i2l4103
  8162   00301C                     i2u441_40:
  8163   00301C  1E1D               	comf	(i2___fltol@f1+3)^0,f,c
  8164   00301E  1E1C               	comf	(i2___fltol@f1+2)^0,f,c
  8165   003020  1E1B               	comf	(i2___fltol@f1+1)^0,f,c
  8166   003022  6C1A               	negf	i2___fltol@f1^0,c
  8167   003024  0E00               	movlw	0
  8168   003026  221B               	addwfc	(i2___fltol@f1+1)^0,f,c
  8169   003028  221C               	addwfc	(i2___fltol@f1+2)^0,f,c
  8170   00302A  221D               	addwfc	(i2___fltol@f1+3)^0,f,c
  8171   00302C                     i2l4103:
  8172   00302C  C01A  F01A         	movff	i2___fltol@f1,?i2___fltol
  8173   003030  C01B  F01B         	movff	i2___fltol@f1+1,?i2___fltol+1
  8174   003034  C01C  F01C         	movff	i2___fltol@f1+2,?i2___fltol+2
  8175   003038  C01D  F01D         	movff	i2___fltol@f1+3,?i2___fltol+3
  8176   00303C                     i2l456:
  8177   00303C  0012               	return		;funcret
  8178   00303E                     __end_ofi2___fltol:
  8179                           	callstack 0
  8180                           
  8181 ;; *************** function i2___flmul *****************
  8182 ;; Defined at:
  8183 ;;		line 8 in file "C:\Program Files\Microchip\xc8\v2.45\pic\sources\c99\common\sprcmul.c"
  8184 ;; Parameters:    Size  Location     Type
  8185 ;;  b               4   14[COMRAM] long 
  8186 ;;  a               4   18[COMRAM] long 
  8187 ;; Auto vars:     Size  Location     Type
  8188 ;;  prod            4   33[COMRAM] struct .
  8189 ;;  grs             4   27[COMRAM] unsigned long 
  8190 ;;  temp            2   37[COMRAM] struct .
  8191 ;;  bexp            1   32[COMRAM] unsigned char 
  8192 ;;  aexp            1   31[COMRAM] unsigned char 
  8193 ;;  sign            1   26[COMRAM] unsigned char 
  8194 ;; Return value:  Size  Location     Type
  8195 ;;                  4   14[COMRAM] unsigned char 
  8196 ;; Registers used:
  8197 ;;		wreg, status,2, status,0, prodl, prodh
  8198 ;; Tracked objects:
  8199 ;;		On entry : 0/0
  8200 ;;		On exit  : 0/0
  8201 ;;		Unchanged: 0/0
  8202 ;; Data sizes:     COMRAM   BANK0   BANK1   BANK2   BANK3   BANK4   BANK5   BANK6   BANK7
  8203 ;;      Params:         8       0       0       0       0       0       0       0       0
  8204 ;;      Locals:        13       0       0       0       0       0       0       0       0
  8205 ;;      Temps:          4       0       0       0       0       0       0       0       0
  8206 ;;      Totals:        25       0       0       0       0       0       0       0       0
  8207 ;;Total ram usage:       25 bytes
  8208 ;; Hardware stack levels used: 1
  8209 ;; This function calls:
  8210 ;;		Nothing
  8211 ;; This function is called by:
  8212 ;;		_INT_CCP1
  8213 ;; This function uses a non-reentrant model
  8214 ;;
  8215                           
  8216                           	psect	text33
  8217   001AFC                     __ptext33:
  8218                           	callstack 0
  8219   001AFC                     i2___flmul:
  8220                           	callstack 21
  8221   001AFC  5012               	movf	(i2___flmul@b+3)^0,w,c
  8222   001AFE  0B80               	andlw	128
  8223   001B00  6E1B               	movwf	i2___flmul@sign^0,c
  8224   001B02  5012               	movf	(i2___flmul@b+3)^0,w,c
  8225   001B04  2412               	addwf	(i2___flmul@b+3)^0,w,c
  8226   001B06  6E21               	movwf	i2___flmul@bexp^0,c
  8227   001B08  AE11               	btfss	(i2___flmul@b+2)^0,7,c
  8228   001B0A  EF89  F00D         	goto	i2u465_41
  8229   001B0E  EF8B  F00D         	goto	i2u465_40
  8230   001B12                     i2u465_41:
  8231   001B12  EF8C  F00D         	goto	i2l4251
  8232   001B16                     i2u465_40:
  8233   001B16  8021               	bsf	i2___flmul@bexp^0,0,c
  8234   001B18                     i2l4251:
  8235   001B18  5021               	movf	i2___flmul@bexp^0,w,c
  8236   001B1A  B4D8               	btfsc	status,2,c
  8237   001B1C  EF92  F00D         	goto	i2u466_41
  8238   001B20  EF94  F00D         	goto	i2u466_40
  8239   001B24                     i2u466_41:
  8240   001B24  EFA7  F00D         	goto	i2l4259
  8241   001B28                     i2u466_40:
  8242   001B28  2821               	incf	i2___flmul@bexp^0,w,c
  8243   001B2A  A4D8               	btfss	status,2,c
  8244   001B2C  EF9A  F00D         	goto	i2u467_41
  8245   001B30  EF9C  F00D         	goto	i2u467_40
  8246   001B34                     i2u467_41:
  8247   001B34  EFA4  F00D         	goto	i2l4257
  8248   001B38                     i2u467_40:
  8249   001B38  0E00               	movlw	0
  8250   001B3A  6E0F               	movwf	i2___flmul@b^0,c
  8251   001B3C  0E00               	movlw	0
  8252   001B3E  6E10               	movwf	(i2___flmul@b+1)^0,c
  8253   001B40  0E00               	movlw	0
  8254   001B42  6E11               	movwf	(i2___flmul@b+2)^0,c
  8255   001B44  0E00               	movlw	0
  8256   001B46  6E12               	movwf	(i2___flmul@b+3)^0,c
  8257   001B48                     i2l4257:
  8258   001B48  8E11               	bsf	(i2___flmul@b+2)^0,7,c
  8259   001B4A  EFAF  F00D         	goto	i2l4261
  8260   001B4E                     i2l4259:
  8261   001B4E  0E00               	movlw	0
  8262   001B50  6E0F               	movwf	i2___flmul@b^0,c
  8263   001B52  0E00               	movlw	0
  8264   001B54  6E10               	movwf	(i2___flmul@b+1)^0,c
  8265   001B56  0E00               	movlw	0
  8266   001B58  6E11               	movwf	(i2___flmul@b+2)^0,c
  8267   001B5A  0E00               	movlw	0
  8268   001B5C  6E12               	movwf	(i2___flmul@b+3)^0,c
  8269   001B5E                     i2l4261:
  8270   001B5E  5016               	movf	(i2___flmul@a+3)^0,w,c
  8271   001B60  0B80               	andlw	128
  8272   001B62  1A1B               	xorwf	i2___flmul@sign^0,f,c
  8273   001B64  5016               	movf	(i2___flmul@a+3)^0,w,c
  8274   001B66  2416               	addwf	(i2___flmul@a+3)^0,w,c
  8275   001B68  6E20               	movwf	i2___flmul@aexp^0,c
  8276   001B6A  AE15               	btfss	(i2___flmul@a+2)^0,7,c
  8277   001B6C  EFBA  F00D         	goto	i2u468_41
  8278   001B70  EFBC  F00D         	goto	i2u468_40
  8279   001B74                     i2u468_41:
  8280   001B74  EFBD  F00D         	goto	i2l4269
  8281   001B78                     i2u468_40:
  8282   001B78  8020               	bsf	i2___flmul@aexp^0,0,c
  8283   001B7A                     i2l4269:
  8284   001B7A  5020               	movf	i2___flmul@aexp^0,w,c
  8285   001B7C  B4D8               	btfsc	status,2,c
  8286   001B7E  EFC3  F00D         	goto	i2u469_41
  8287   001B82  EFC5  F00D         	goto	i2u469_40
  8288   001B86                     i2u469_41:
  8289   001B86  EFD8  F00D         	goto	i2l4277
  8290   001B8A                     i2u469_40:
  8291   001B8A  2820               	incf	i2___flmul@aexp^0,w,c
  8292   001B8C  A4D8               	btfss	status,2,c
  8293   001B8E  EFCB  F00D         	goto	i2u470_41
  8294   001B92  EFCD  F00D         	goto	i2u470_40
  8295   001B96                     i2u470_41:
  8296   001B96  EFD5  F00D         	goto	i2l4275
  8297   001B9A                     i2u470_40:
  8298   001B9A  0E00               	movlw	0
  8299   001B9C  6E13               	movwf	i2___flmul@a^0,c
  8300   001B9E  0E00               	movlw	0
  8301   001BA0  6E14               	movwf	(i2___flmul@a+1)^0,c
  8302   001BA2  0E00               	movlw	0
  8303   001BA4  6E15               	movwf	(i2___flmul@a+2)^0,c
  8304   001BA6  0E00               	movlw	0
  8305   001BA8  6E16               	movwf	(i2___flmul@a+3)^0,c
  8306   001BAA                     i2l4275:
  8307   001BAA  8E15               	bsf	(i2___flmul@a+2)^0,7,c
  8308   001BAC  EFE0  F00D         	goto	i2l773
  8309   001BB0                     i2l4277:
  8310   001BB0  0E00               	movlw	0
  8311   001BB2  6E13               	movwf	i2___flmul@a^0,c
  8312   001BB4  0E00               	movlw	0
  8313   001BB6  6E14               	movwf	(i2___flmul@a+1)^0,c
  8314   001BB8  0E00               	movlw	0
  8315   001BBA  6E15               	movwf	(i2___flmul@a+2)^0,c
  8316   001BBC  0E00               	movlw	0
  8317   001BBE  6E16               	movwf	(i2___flmul@a+3)^0,c
  8318   001BC0                     i2l773:
  8319   001BC0  5020               	movf	i2___flmul@aexp^0,w,c
  8320   001BC2  B4D8               	btfsc	status,2,c
  8321   001BC4  EFE6  F00D         	goto	i2u471_41
  8322   001BC8  EFE8  F00D         	goto	i2u471_40
  8323   001BCC                     i2u471_41:
  8324   001BCC  EFF0  F00D         	goto	i2l4281
  8325   001BD0                     i2u471_40:
  8326   001BD0  5021               	movf	i2___flmul@bexp^0,w,c
  8327   001BD2  A4D8               	btfss	status,2,c
  8328   001BD4  EFEE  F00D         	goto	i2u472_41
  8329   001BD8  EFF0  F00D         	goto	i2u472_40
  8330   001BDC                     i2u472_41:
  8331   001BDC  EFFA  F00D         	goto	i2l4285
  8332   001BE0                     i2u472_40:
  8333   001BE0                     i2l4281:
  8334   001BE0  0E00               	movlw	0
  8335   001BE2  6E0F               	movwf	?i2___flmul^0,c
  8336   001BE4  0E00               	movlw	0
  8337   001BE6  6E10               	movwf	(?i2___flmul+1)^0,c
  8338   001BE8  0E00               	movlw	0
  8339   001BEA  6E11               	movwf	(?i2___flmul+2)^0,c
  8340   001BEC  0E00               	movlw	0
  8341   001BEE  6E12               	movwf	(?i2___flmul+3)^0,c
  8342   001BF0  EF92  F00F         	goto	i2l777
  8343   001BF4                     i2l4285:
  8344   001BF4  5015               	movf	(i2___flmul@a+2)^0,w,c
  8345   001BF6  020F               	mulwf	i2___flmul@b^0,c
  8346   001BF8  CFF3 F026          	movff	prodl,i2___flmul@temp
  8347   001BFC  CFF4 F027          	movff	prodh,i2___flmul@temp+1
  8348   001C00  5026               	movf	i2___flmul@temp^0,w,c
  8349   001C02  6E1C               	movwf	i2___flmul@grs^0,c
  8350   001C04  6A1D               	clrf	(i2___flmul@grs+1)^0,c
  8351   001C06  6A1E               	clrf	(i2___flmul@grs+2)^0,c
  8352   001C08  6A1F               	clrf	(i2___flmul@grs+3)^0,c
  8353   001C0A  5027               	movf	(i2___flmul@temp+1)^0,w,c
  8354   001C0C  6E22               	movwf	i2___flmul@prod^0,c
  8355   001C0E  6A23               	clrf	(i2___flmul@prod+1)^0,c
  8356   001C10  6A24               	clrf	(i2___flmul@prod+2)^0,c
  8357   001C12  6A25               	clrf	(i2___flmul@prod+3)^0,c
  8358   001C14  5014               	movf	(i2___flmul@a+1)^0,w,c
  8359   001C16  0210               	mulwf	(i2___flmul@b+1)^0,c
  8360   001C18  CFF3 F026          	movff	prodl,i2___flmul@temp
  8361   001C1C  CFF4 F027          	movff	prodh,i2___flmul@temp+1
  8362   001C20  5026               	movf	i2___flmul@temp^0,w,c
  8363   001C22  261C               	addwf	i2___flmul@grs^0,f,c
  8364   001C24  0E00               	movlw	0
  8365   001C26  221D               	addwfc	(i2___flmul@grs+1)^0,f,c
  8366   001C28  221E               	addwfc	(i2___flmul@grs+2)^0,f,c
  8367   001C2A  221F               	addwfc	(i2___flmul@grs+3)^0,f,c
  8368   001C2C  5027               	movf	(i2___flmul@temp+1)^0,w,c
  8369   001C2E  2622               	addwf	i2___flmul@prod^0,f,c
  8370   001C30  0E00               	movlw	0
  8371   001C32  2223               	addwfc	(i2___flmul@prod+1)^0,f,c
  8372   001C34  2224               	addwfc	(i2___flmul@prod+2)^0,f,c
  8373   001C36  2225               	addwfc	(i2___flmul@prod+3)^0,f,c
  8374   001C38  5013               	movf	i2___flmul@a^0,w,c
  8375   001C3A  0211               	mulwf	(i2___flmul@b+2)^0,c
  8376   001C3C  CFF3 F026          	movff	prodl,i2___flmul@temp
  8377   001C40  CFF4 F027          	movff	prodh,i2___flmul@temp+1
  8378   001C44  5026               	movf	i2___flmul@temp^0,w,c
  8379   001C46  261C               	addwf	i2___flmul@grs^0,f,c
  8380   001C48  0E00               	movlw	0
  8381   001C4A  221D               	addwfc	(i2___flmul@grs+1)^0,f,c
  8382   001C4C  221E               	addwfc	(i2___flmul@grs+2)^0,f,c
  8383   001C4E  221F               	addwfc	(i2___flmul@grs+3)^0,f,c
  8384   001C50  5027               	movf	(i2___flmul@temp+1)^0,w,c
  8385   001C52  2622               	addwf	i2___flmul@prod^0,f,c
  8386   001C54  0E00               	movlw	0
  8387   001C56  2223               	addwfc	(i2___flmul@prod+1)^0,f,c
  8388   001C58  2224               	addwfc	(i2___flmul@prod+2)^0,f,c
  8389   001C5A  2225               	addwfc	(i2___flmul@prod+3)^0,f,c
  8390   001C5C  C01E  F01F         	movff	i2___flmul@grs+2,i2___flmul@grs+3
  8391   001C60  C01D  F01E         	movff	i2___flmul@grs+1,i2___flmul@grs+2
  8392   001C64  C01C  F01D         	movff	i2___flmul@grs,i2___flmul@grs+1
  8393   001C68  6A1C               	clrf	i2___flmul@grs^0,c
  8394   001C6A  5013               	movf	i2___flmul@a^0,w,c
  8395   001C6C  0210               	mulwf	(i2___flmul@b+1)^0,c
  8396   001C6E  CFF3 F026          	movff	prodl,i2___flmul@temp
  8397   001C72  CFF4 F027          	movff	prodh,i2___flmul@temp+1
  8398   001C76  5026               	movf	i2___flmul@temp^0,w,c
  8399   001C78  261C               	addwf	i2___flmul@grs^0,f,c
  8400   001C7A  5027               	movf	(i2___flmul@temp+1)^0,w,c
  8401   001C7C  221D               	addwfc	(i2___flmul@grs+1)^0,f,c
  8402   001C7E  0E00               	movlw	0
  8403   001C80  221E               	addwfc	(i2___flmul@grs+2)^0,f,c
  8404   001C82  0E00               	movlw	0
  8405   001C84  221F               	addwfc	(i2___flmul@grs+3)^0,f,c
  8406   001C86  5014               	movf	(i2___flmul@a+1)^0,w,c
  8407   001C88  020F               	mulwf	i2___flmul@b^0,c
  8408   001C8A  CFF3 F026          	movff	prodl,i2___flmul@temp
  8409   001C8E  CFF4 F027          	movff	prodh,i2___flmul@temp+1
  8410   001C92  5026               	movf	i2___flmul@temp^0,w,c
  8411   001C94  261C               	addwf	i2___flmul@grs^0,f,c
  8412   001C96  5027               	movf	(i2___flmul@temp+1)^0,w,c
  8413   001C98  221D               	addwfc	(i2___flmul@grs+1)^0,f,c
  8414   001C9A  0E00               	movlw	0
  8415   001C9C  221E               	addwfc	(i2___flmul@grs+2)^0,f,c
  8416   001C9E  0E00               	movlw	0
  8417   001CA0  221F               	addwfc	(i2___flmul@grs+3)^0,f,c
  8418   001CA2  C01E  F01F         	movff	i2___flmul@grs+2,i2___flmul@grs+3
  8419   001CA6  C01D  F01E         	movff	i2___flmul@grs+1,i2___flmul@grs+2
  8420   001CAA  C01C  F01D         	movff	i2___flmul@grs,i2___flmul@grs+1
  8421   001CAE  6A1C               	clrf	i2___flmul@grs^0,c
  8422   001CB0  5013               	movf	i2___flmul@a^0,w,c
  8423   001CB2  020F               	mulwf	i2___flmul@b^0,c
  8424   001CB4  CFF3 F026          	movff	prodl,i2___flmul@temp
  8425   001CB8  CFF4 F027          	movff	prodh,i2___flmul@temp+1
  8426   001CBC  5026               	movf	i2___flmul@temp^0,w,c
  8427   001CBE  261C               	addwf	i2___flmul@grs^0,f,c
  8428   001CC0  5027               	movf	(i2___flmul@temp+1)^0,w,c
  8429   001CC2  221D               	addwfc	(i2___flmul@grs+1)^0,f,c
  8430   001CC4  0E00               	movlw	0
  8431   001CC6  221E               	addwfc	(i2___flmul@grs+2)^0,f,c
  8432   001CC8  0E00               	movlw	0
  8433   001CCA  221F               	addwfc	(i2___flmul@grs+3)^0,f,c
  8434   001CCC  5015               	movf	(i2___flmul@a+2)^0,w,c
  8435   001CCE  0210               	mulwf	(i2___flmul@b+1)^0,c
  8436   001CD0  CFF3 F026          	movff	prodl,i2___flmul@temp
  8437   001CD4  CFF4 F027          	movff	prodh,i2___flmul@temp+1
  8438   001CD8  5026               	movf	i2___flmul@temp^0,w,c
  8439   001CDA  2622               	addwf	i2___flmul@prod^0,f,c
  8440   001CDC  5027               	movf	(i2___flmul@temp+1)^0,w,c
  8441   001CDE  2223               	addwfc	(i2___flmul@prod+1)^0,f,c
  8442   001CE0  0E00               	movlw	0
  8443   001CE2  2224               	addwfc	(i2___flmul@prod+2)^0,f,c
  8444   001CE4  0E00               	movlw	0
  8445   001CE6  2225               	addwfc	(i2___flmul@prod+3)^0,f,c
  8446   001CE8  5014               	movf	(i2___flmul@a+1)^0,w,c
  8447   001CEA  0211               	mulwf	(i2___flmul@b+2)^0,c
  8448   001CEC  CFF3 F026          	movff	prodl,i2___flmul@temp
  8449   001CF0  CFF4 F027          	movff	prodh,i2___flmul@temp+1
  8450   001CF4  5026               	movf	i2___flmul@temp^0,w,c
  8451   001CF6  2622               	addwf	i2___flmul@prod^0,f,c
  8452   001CF8  5027               	movf	(i2___flmul@temp+1)^0,w,c
  8453   001CFA  2223               	addwfc	(i2___flmul@prod+1)^0,f,c
  8454   001CFC  0E00               	movlw	0
  8455   001CFE  2224               	addwfc	(i2___flmul@prod+2)^0,f,c
  8456   001D00  0E00               	movlw	0
  8457   001D02  2225               	addwfc	(i2___flmul@prod+3)^0,f,c
  8458   001D04  5015               	movf	(i2___flmul@a+2)^0,w,c
  8459   001D06  0211               	mulwf	(i2___flmul@b+2)^0,c
  8460   001D08  CFF3 F026          	movff	prodl,i2___flmul@temp
  8461   001D0C  CFF4 F027          	movff	prodh,i2___flmul@temp+1
  8462   001D10  5026               	movf	i2___flmul@temp^0,w,c
  8463   001D12  6E17               	movwf	??i2___flmul^0,c
  8464   001D14  5027               	movf	(i2___flmul@temp+1)^0,w,c
  8465   001D16  6E18               	movwf	(??i2___flmul+1)^0,c
  8466   001D18  6A19               	clrf	(??i2___flmul+2)^0,c
  8467   001D1A  6A1A               	clrf	(??i2___flmul+3)^0,c
  8468   001D1C  C019  F01A         	movff	??i2___flmul+2,??i2___flmul+3
  8469   001D20  C018  F019         	movff	??i2___flmul+1,??i2___flmul+2
  8470   001D24  C017  F018         	movff	??i2___flmul,??i2___flmul+1
  8471   001D28  6A17               	clrf	??i2___flmul^0,c
  8472   001D2A  5017               	movf	??i2___flmul^0,w,c
  8473   001D2C  2622               	addwf	i2___flmul@prod^0,f,c
  8474   001D2E  5018               	movf	(??i2___flmul+1)^0,w,c
  8475   001D30  2223               	addwfc	(i2___flmul@prod+1)^0,f,c
  8476   001D32  5019               	movf	(??i2___flmul+2)^0,w,c
  8477   001D34  2224               	addwfc	(i2___flmul@prod+2)^0,f,c
  8478   001D36  501A               	movf	(??i2___flmul+3)^0,w,c
  8479   001D38  2225               	addwfc	(i2___flmul@prod+3)^0,f,c
  8480   001D3A  C01C  F017         	movff	i2___flmul@grs,??i2___flmul
  8481   001D3E  C01D  F018         	movff	i2___flmul@grs+1,??i2___flmul+1
  8482   001D42  C01E  F019         	movff	i2___flmul@grs+2,??i2___flmul+2
  8483   001D46  C01F  F01A         	movff	i2___flmul@grs+3,??i2___flmul+3
  8484   001D4A  0E19               	movlw	25
  8485   001D4C  EFAD  F00E         	goto	i2u473_40
  8486   001D50                     i2u473_45:
  8487   001D50  90D8               	bcf	status,0,c
  8488   001D52  321A               	rrcf	(??i2___flmul+3)^0,f,c
  8489   001D54  3219               	rrcf	(??i2___flmul+2)^0,f,c
  8490   001D56  3218               	rrcf	(??i2___flmul+1)^0,f,c
  8491   001D58  3217               	rrcf	??i2___flmul^0,f,c
  8492   001D5A                     i2u473_40:
  8493   001D5A  2EE8               	decfsz	wreg,f,c
  8494   001D5C  EFA8  F00E         	goto	i2u473_45
  8495   001D60  5017               	movf	??i2___flmul^0,w,c
  8496   001D62  2622               	addwf	i2___flmul@prod^0,f,c
  8497   001D64  5018               	movf	(??i2___flmul+1)^0,w,c
  8498   001D66  2223               	addwfc	(i2___flmul@prod+1)^0,f,c
  8499   001D68  5019               	movf	(??i2___flmul+2)^0,w,c
  8500   001D6A  2224               	addwfc	(i2___flmul@prod+2)^0,f,c
  8501   001D6C  501A               	movf	(??i2___flmul+3)^0,w,c
  8502   001D6E  2225               	addwfc	(i2___flmul@prod+3)^0,f,c
  8503   001D70  C01E  F01F         	movff	i2___flmul@grs+2,i2___flmul@grs+3
  8504   001D74  C01D  F01E         	movff	i2___flmul@grs+1,i2___flmul@grs+2
  8505   001D78  C01C  F01D         	movff	i2___flmul@grs,i2___flmul@grs+1
  8506   001D7C  6A1C               	clrf	i2___flmul@grs^0,c
  8507   001D7E  5020               	movf	i2___flmul@aexp^0,w,c
  8508   001D80  C021  F017         	movff	i2___flmul@bexp,??i2___flmul
  8509   001D84  6A18               	clrf	(??i2___flmul+1)^0,c
  8510   001D86  2617               	addwf	??i2___flmul^0,f,c
  8511   001D88  0E00               	movlw	0
  8512   001D8A  2218               	addwfc	(??i2___flmul+1)^0,f,c
  8513   001D8C  0E82               	movlw	130
  8514   001D8E  2417               	addwf	??i2___flmul^0,w,c
  8515   001D90  6E26               	movwf	i2___flmul@temp^0,c
  8516   001D92  0EFF               	movlw	255
  8517   001D94  2018               	addwfc	(??i2___flmul+1)^0,w,c
  8518   001D96  6E27               	movwf	(i2___flmul@temp+1)^0,c
  8519   001D98  EFE3  F00E         	goto	i2l4333
  8520   001D9C                     i2l4327:
  8521   001D9C  90D8               	bcf	status,0,c
  8522   001D9E  3622               	rlcf	i2___flmul@prod^0,f,c
  8523   001DA0  3623               	rlcf	(i2___flmul@prod+1)^0,f,c
  8524   001DA2  3624               	rlcf	(i2___flmul@prod+2)^0,f,c
  8525   001DA4  3625               	rlcf	(i2___flmul@prod+3)^0,f,c
  8526   001DA6  AE1F               	btfss	(i2___flmul@grs+3)^0,7,c
  8527   001DA8  EFD8  F00E         	goto	i2u474_41
  8528   001DAC  EFDA  F00E         	goto	i2u474_40
  8529   001DB0                     i2u474_41:
  8530   001DB0  EFDB  F00E         	goto	i2l780
  8531   001DB4                     i2u474_40:
  8532   001DB4  8022               	bsf	i2___flmul@prod^0,0,c
  8533   001DB6                     i2l780:
  8534   001DB6  90D8               	bcf	status,0,c
  8535   001DB8  361C               	rlcf	i2___flmul@grs^0,f,c
  8536   001DBA  361D               	rlcf	(i2___flmul@grs+1)^0,f,c
  8537   001DBC  361E               	rlcf	(i2___flmul@grs+2)^0,f,c
  8538   001DBE  361F               	rlcf	(i2___flmul@grs+3)^0,f,c
  8539   001DC0  0626               	decf	i2___flmul@temp^0,f,c
  8540   001DC2  A0D8               	btfss	status,0,c
  8541   001DC4  0627               	decf	(i2___flmul@temp+1)^0,f,c
  8542   001DC6                     i2l4333:
  8543   001DC6  AE24               	btfss	(i2___flmul@prod+2)^0,7,c
  8544   001DC8  EFE8  F00E         	goto	i2u475_41
  8545   001DCC  EFEA  F00E         	goto	i2u475_40
  8546   001DD0                     i2u475_41:
  8547   001DD0  EFCE  F00E         	goto	i2l4327
  8548   001DD4                     i2u475_40:
  8549   001DD4  0E00               	movlw	0
  8550   001DD6  6E20               	movwf	i2___flmul@aexp^0,c
  8551   001DD8  AE1F               	btfss	(i2___flmul@grs+3)^0,7,c
  8552   001DDA  EFF1  F00E         	goto	i2u476_41
  8553   001DDE  EFF3  F00E         	goto	i2u476_40
  8554   001DE2                     i2u476_41:
  8555   001DE2  EF17  F00F         	goto	i2l782
  8556   001DE6                     i2u476_40:
  8557   001DE6  0EFF               	movlw	255
  8558   001DE8  141C               	andwf	i2___flmul@grs^0,w,c
  8559   001DEA  6E17               	movwf	??i2___flmul^0,c
  8560   001DEC  0EFF               	movlw	255
  8561   001DEE  141D               	andwf	(i2___flmul@grs+1)^0,w,c
  8562   001DF0  6E18               	movwf	(??i2___flmul+1)^0,c
  8563   001DF2  0EFF               	movlw	255
  8564   001DF4  141E               	andwf	(i2___flmul@grs+2)^0,w,c
  8565   001DF6  6E19               	movwf	(??i2___flmul+2)^0,c
  8566   001DF8  0E7F               	movlw	127
  8567   001DFA  141F               	andwf	(i2___flmul@grs+3)^0,w,c
  8568   001DFC  6E1A               	movwf	(??i2___flmul+3)^0,c
  8569   001DFE  5017               	movf	??i2___flmul^0,w,c
  8570   001E00  1018               	iorwf	(??i2___flmul+1)^0,w,c
  8571   001E02  1019               	iorwf	(??i2___flmul+2)^0,w,c
  8572   001E04  101A               	iorwf	(??i2___flmul+3)^0,w,c
  8573   001E06  B4D8               	btfsc	status,2,c
  8574   001E08  EF08  F00F         	goto	i2u477_41
  8575   001E0C  EF0A  F00F         	goto	i2u477_40
  8576   001E10                     i2u477_41:
  8577   001E10  EF0E  F00F         	goto	i2l783
  8578   001E14                     i2u477_40:
  8579   001E14                     i2l4341:
  8580   001E14  0E01               	movlw	1
  8581   001E16  6E20               	movwf	i2___flmul@aexp^0,c
  8582   001E18  EF17  F00F         	goto	i2l782
  8583   001E1C                     i2l783:
  8584   001E1C  A022               	btfss	i2___flmul@prod^0,0,c
  8585   001E1E  EF13  F00F         	goto	i2u478_41
  8586   001E22  EF15  F00F         	goto	i2u478_40
  8587   001E26                     i2u478_41:
  8588   001E26  EF17  F00F         	goto	i2l782
  8589   001E2A                     i2u478_40:
  8590   001E2A  EF0A  F00F         	goto	i2l4341
  8591   001E2E                     i2l782:
  8592   001E2E  5020               	movf	i2___flmul@aexp^0,w,c
  8593   001E30  B4D8               	btfsc	status,2,c
  8594   001E32  EF1D  F00F         	goto	i2u479_41
  8595   001E36  EF1F  F00F         	goto	i2u479_40
  8596   001E3A                     i2u479_41:
  8597   001E3A  EF43  F00F         	goto	i2l4353
  8598   001E3E                     i2u479_40:
  8599   001E3E  0E01               	movlw	1
  8600   001E40  2622               	addwf	i2___flmul@prod^0,f,c
  8601   001E42  0E00               	movlw	0
  8602   001E44  2223               	addwfc	(i2___flmul@prod+1)^0,f,c
  8603   001E46  2224               	addwfc	(i2___flmul@prod+2)^0,f,c
  8604   001E48  2225               	addwfc	(i2___flmul@prod+3)^0,f,c
  8605   001E4A  A025               	btfss	(i2___flmul@prod+3)^0,0,c
  8606   001E4C  EF2A  F00F         	goto	i2u480_41
  8607   001E50  EF2C  F00F         	goto	i2u480_40
  8608   001E54                     i2u480_41:
  8609   001E54  EF43  F00F         	goto	i2l4353
  8610   001E58                     i2u480_40:
  8611   001E58  C022  F017         	movff	i2___flmul@prod,??i2___flmul
  8612   001E5C  C023  F018         	movff	i2___flmul@prod+1,??i2___flmul+1
  8613   001E60  C024  F019         	movff	i2___flmul@prod+2,??i2___flmul+2
  8614   001E64  C025  F01A         	movff	i2___flmul@prod+3,??i2___flmul+3
  8615   001E68  341A               	rlcf	(??i2___flmul+3)^0,w,c
  8616   001E6A  321A               	rrcf	(??i2___flmul+3)^0,f,c
  8617   001E6C  3219               	rrcf	(??i2___flmul+2)^0,f,c
  8618   001E6E  3218               	rrcf	(??i2___flmul+1)^0,f,c
  8619   001E70  3217               	rrcf	??i2___flmul^0,f,c
  8620   001E72  C017  F022         	movff	??i2___flmul,i2___flmul@prod
  8621   001E76  C018  F023         	movff	??i2___flmul+1,i2___flmul@prod+1
  8622   001E7A  C019  F024         	movff	??i2___flmul+2,i2___flmul@prod+2
  8623   001E7E  C01A  F025         	movff	??i2___flmul+3,i2___flmul@prod+3
  8624   001E82  4A26               	infsnz	i2___flmul@temp^0,f,c
  8625   001E84  2A27               	incf	(i2___flmul@temp+1)^0,f,c
  8626   001E86                     i2l4353:
  8627   001E86  BE27               	btfsc	(i2___flmul@temp+1)^0,7,c
  8628   001E88  EF4E  F00F         	goto	i2u481_41
  8629   001E8C  5027               	movf	(i2___flmul@temp+1)^0,w,c
  8630   001E8E  E108               	bnz	i2u481_40
  8631   001E90  2826               	incf	i2___flmul@temp^0,w,c
  8632   001E92  A0D8               	btfss	status,0,c
  8633   001E94  EF4E  F00F         	goto	i2u481_41
  8634   001E98  EF50  F00F         	goto	i2u481_40
  8635   001E9C                     i2u481_41:
  8636   001E9C  EF5A  F00F         	goto	i2l4357
  8637   001EA0                     i2u481_40:
  8638   001EA0  0E00               	movlw	0
  8639   001EA2  6E22               	movwf	i2___flmul@prod^0,c
  8640   001EA4  0E00               	movlw	0
  8641   001EA6  6E23               	movwf	(i2___flmul@prod+1)^0,c
  8642   001EA8  0E80               	movlw	128
  8643   001EAA  6E24               	movwf	(i2___flmul@prod+2)^0,c
  8644   001EAC  0E7F               	movlw	127
  8645   001EAE  6E25               	movwf	(i2___flmul@prod+3)^0,c
  8646   001EB0  EF88  F00F         	goto	i2l4369
  8647   001EB4                     i2l4357:
  8648   001EB4  BE27               	btfsc	(i2___flmul@temp+1)^0,7,c
  8649   001EB6  EF67  F00F         	goto	i2u482_40
  8650   001EBA  5027               	movf	(i2___flmul@temp+1)^0,w,c
  8651   001EBC  E106               	bnz	i2u482_41
  8652   001EBE  0426               	decf	i2___flmul@temp^0,w,c
  8653   001EC0  B0D8               	btfsc	status,0,c
  8654   001EC2  EF65  F00F         	goto	i2u482_41
  8655   001EC6  EF67  F00F         	goto	i2u482_40
  8656   001ECA                     i2u482_41:
  8657   001ECA  EF73  F00F         	goto	i2l790
  8658   001ECE                     i2u482_40:
  8659   001ECE  0E00               	movlw	0
  8660   001ED0  6E22               	movwf	i2___flmul@prod^0,c
  8661   001ED2  0E00               	movlw	0
  8662   001ED4  6E23               	movwf	(i2___flmul@prod+1)^0,c
  8663   001ED6  0E00               	movlw	0
  8664   001ED8  6E24               	movwf	(i2___flmul@prod+2)^0,c
  8665   001EDA  0E00               	movlw	0
  8666   001EDC  6E25               	movwf	(i2___flmul@prod+3)^0,c
  8667   001EDE  0E00               	movlw	0
  8668   001EE0  6E1B               	movwf	i2___flmul@sign^0,c
  8669   001EE2  EF88  F00F         	goto	i2l4369
  8670   001EE6                     i2l790:
  8671   001EE6  C026  F021         	movff	i2___flmul@temp,i2___flmul@bexp
  8672   001EEA  0EFF               	movlw	255
  8673   001EEC  1622               	andwf	i2___flmul@prod^0,f,c
  8674   001EEE  0EFF               	movlw	255
  8675   001EF0  1623               	andwf	(i2___flmul@prod+1)^0,f,c
  8676   001EF2  0E7F               	movlw	127
  8677   001EF4  1624               	andwf	(i2___flmul@prod+2)^0,f,c
  8678   001EF6  0E00               	movlw	0
  8679   001EF8  1625               	andwf	(i2___flmul@prod+3)^0,f,c
  8680   001EFA  A021               	btfss	i2___flmul@bexp^0,0,c
  8681   001EFC  EF82  F00F         	goto	i2u483_41
  8682   001F00  EF84  F00F         	goto	i2u483_40
  8683   001F04                     i2u483_41:
  8684   001F04  EF85  F00F         	goto	i2l4367
  8685   001F08                     i2u483_40:
  8686   001F08  8E24               	bsf	(i2___flmul@prod+2)^0,7,c
  8687   001F0A                     i2l4367:
  8688   001F0A  90D8               	bcf	status,0,c
  8689   001F0C  3021               	rrcf	i2___flmul@bexp^0,w,c
  8690   001F0E  6E25               	movwf	(i2___flmul@prod+3)^0,c
  8691   001F10                     i2l4369:
  8692   001F10  501B               	movf	i2___flmul@sign^0,w,c
  8693   001F12  1225               	iorwf	(i2___flmul@prod+3)^0,f,c
  8694   001F14  C022  F00F         	movff	i2___flmul@prod,?i2___flmul
  8695   001F18  C023  F010         	movff	i2___flmul@prod+1,?i2___flmul+1
  8696   001F1C  C024  F011         	movff	i2___flmul@prod+2,?i2___flmul+2
  8697   001F20  C025  F012         	movff	i2___flmul@prod+3,?i2___flmul+3
  8698   001F24                     i2l777:
  8699   001F24  0012               	return		;funcret
  8700   001F26                     __end_ofi2___flmul:
  8701                           	callstack 0
  8702                           
  8703 ;; *************** function i2___fldiv *****************
  8704 ;; Defined at:
  8705 ;;		line 11 in file "C:\Program Files\Microchip\xc8\v2.45\pic\sources\c99\common\sprcdiv.c"
  8706 ;; Parameters:    Size  Location     Type
  8707 ;;  b               4    0[COMRAM] unsigned char 
  8708 ;;  a               4    4[COMRAM] unsigned char 
  8709 ;; Auto vars:     Size  Location     Type
  8710 ;;  grs             4   19[COMRAM] unsigned long 
  8711 ;;  rem             4   12[COMRAM] unsigned long 
  8712 ;;  new_exp         2   17[COMRAM] short 
  8713 ;;  aexp            1   24[COMRAM] unsigned char 
  8714 ;;  bexp            1   23[COMRAM] unsigned char 
  8715 ;;  sign            1   16[COMRAM] unsigned char 
  8716 ;; Return value:  Size  Location     Type
  8717 ;;                  4    0[COMRAM] unsigned char 
  8718 ;; Registers used:
  8719 ;;		wreg, status,2, status,0
  8720 ;; Tracked objects:
  8721 ;;		On entry : 0/0
  8722 ;;		On exit  : 0/0
  8723 ;;		Unchanged: 0/0
  8724 ;; Data sizes:     COMRAM   BANK0   BANK1   BANK2   BANK3   BANK4   BANK5   BANK6   BANK7
  8725 ;;      Params:         8       0       0       0       0       0       0       0       0
  8726 ;;      Locals:        13       0       0       0       0       0       0       0       0
  8727 ;;      Temps:          4       0       0       0       0       0       0       0       0
  8728 ;;      Totals:        25       0       0       0       0       0       0       0       0
  8729 ;;Total ram usage:       25 bytes
  8730 ;; Hardware stack levels used: 1
  8731 ;; This function calls:
  8732 ;;		Nothing
  8733 ;; This function is called by:
  8734 ;;		_INT_CCP1
  8735 ;; This function uses a non-reentrant model
  8736 ;;
  8737                           
  8738                           	psect	text34
  8739   0022C2                     __ptext34:
  8740                           	callstack 0
  8741   0022C2                     i2___fldiv:
  8742                           	callstack 21
  8743   0022C2  5004               	movf	(i2___fldiv@b+3)^0,w,c
  8744   0022C4  0B80               	andlw	128
  8745   0022C6  6E11               	movwf	i2___fldiv@sign^0,c
  8746   0022C8  5004               	movf	(i2___fldiv@b+3)^0,w,c
  8747   0022CA  2404               	addwf	(i2___fldiv@b+3)^0,w,c
  8748   0022CC  6E18               	movwf	i2___fldiv@bexp^0,c
  8749   0022CE  AE03               	btfss	(i2___fldiv@b+2)^0,7,c
  8750   0022D0  EF6C  F011         	goto	i2u442_41
  8751   0022D4  EF6E  F011         	goto	i2u442_40
  8752   0022D8                     i2u442_41:
  8753   0022D8  EF6F  F011         	goto	i2l4113
  8754   0022DC                     i2u442_40:
  8755   0022DC  8018               	bsf	i2___fldiv@bexp^0,0,c
  8756   0022DE                     i2l4113:
  8757   0022DE  5018               	movf	i2___fldiv@bexp^0,w,c
  8758   0022E0  B4D8               	btfsc	status,2,c
  8759   0022E2  EF75  F011         	goto	i2u443_41
  8760   0022E6  EF77  F011         	goto	i2u443_40
  8761   0022EA                     i2u443_41:
  8762   0022EA  EF8C  F011         	goto	i2l4123
  8763   0022EE                     i2u443_40:
  8764   0022EE  2818               	incf	i2___fldiv@bexp^0,w,c
  8765   0022F0  A4D8               	btfss	status,2,c
  8766   0022F2  EF7D  F011         	goto	i2u444_41
  8767   0022F6  EF7F  F011         	goto	i2u444_40
  8768   0022FA                     i2u444_41:
  8769   0022FA  EF87  F011         	goto	i2l4119
  8770   0022FE                     i2u444_40:
  8771   0022FE  0E00               	movlw	0
  8772   002300  6E01               	movwf	i2___fldiv@b^0,c
  8773   002302  0E00               	movlw	0
  8774   002304  6E02               	movwf	(i2___fldiv@b+1)^0,c
  8775   002306  0E00               	movlw	0
  8776   002308  6E03               	movwf	(i2___fldiv@b+2)^0,c
  8777   00230A  0E00               	movlw	0
  8778   00230C  6E04               	movwf	(i2___fldiv@b+3)^0,c
  8779   00230E                     i2l4119:
  8780   00230E  8E03               	bsf	(i2___fldiv@b+2)^0,7,c
  8781   002310  0E00               	movlw	0
  8782   002312  6E04               	movwf	(i2___fldiv@b+3)^0,c
  8783   002314  EF94  F011         	goto	i2l4125
  8784   002318                     i2l4123:
  8785   002318  0E00               	movlw	0
  8786   00231A  6E01               	movwf	i2___fldiv@b^0,c
  8787   00231C  0E00               	movlw	0
  8788   00231E  6E02               	movwf	(i2___fldiv@b+1)^0,c
  8789   002320  0E00               	movlw	0
  8790   002322  6E03               	movwf	(i2___fldiv@b+2)^0,c
  8791   002324  0E00               	movlw	0
  8792   002326  6E04               	movwf	(i2___fldiv@b+3)^0,c
  8793   002328                     i2l4125:
  8794   002328  5008               	movf	(i2___fldiv@a+3)^0,w,c
  8795   00232A  0B80               	andlw	128
  8796   00232C  1A11               	xorwf	i2___fldiv@sign^0,f,c
  8797   00232E  5008               	movf	(i2___fldiv@a+3)^0,w,c
  8798   002330  2408               	addwf	(i2___fldiv@a+3)^0,w,c
  8799   002332  6E19               	movwf	i2___fldiv@aexp^0,c
  8800   002334  AE07               	btfss	(i2___fldiv@a+2)^0,7,c
  8801   002336  EF9F  F011         	goto	i2u445_41
  8802   00233A  EFA1  F011         	goto	i2u445_40
  8803   00233E                     i2u445_41:
  8804   00233E  EFA2  F011         	goto	i2l4133
  8805   002342                     i2u445_40:
  8806   002342  8019               	bsf	i2___fldiv@aexp^0,0,c
  8807   002344                     i2l4133:
  8808   002344  5019               	movf	i2___fldiv@aexp^0,w,c
  8809   002346  B4D8               	btfsc	status,2,c
  8810   002348  EFA8  F011         	goto	i2u446_41
  8811   00234C  EFAA  F011         	goto	i2u446_40
  8812   002350                     i2u446_41:
  8813   002350  EFBF  F011         	goto	i2l4143
  8814   002354                     i2u446_40:
  8815   002354  2819               	incf	i2___fldiv@aexp^0,w,c
  8816   002356  A4D8               	btfss	status,2,c
  8817   002358  EFB0  F011         	goto	i2u447_41
  8818   00235C  EFB2  F011         	goto	i2u447_40
  8819   002360                     i2u447_41:
  8820   002360  EFBA  F011         	goto	i2l4139
  8821   002364                     i2u447_40:
  8822   002364  0E00               	movlw	0
  8823   002366  6E05               	movwf	i2___fldiv@a^0,c
  8824   002368  0E00               	movlw	0
  8825   00236A  6E06               	movwf	(i2___fldiv@a+1)^0,c
  8826   00236C  0E00               	movlw	0
  8827   00236E  6E07               	movwf	(i2___fldiv@a+2)^0,c
  8828   002370  0E00               	movlw	0
  8829   002372  6E08               	movwf	(i2___fldiv@a+3)^0,c
  8830   002374                     i2l4139:
  8831   002374  8E07               	bsf	(i2___fldiv@a+2)^0,7,c
  8832   002376  0E00               	movlw	0
  8833   002378  6E08               	movwf	(i2___fldiv@a+3)^0,c
  8834   00237A  EFC7  F011         	goto	i2l4145
  8835   00237E                     i2l4143:
  8836   00237E  0E00               	movlw	0
  8837   002380  6E05               	movwf	i2___fldiv@a^0,c
  8838   002382  0E00               	movlw	0
  8839   002384  6E06               	movwf	(i2___fldiv@a+1)^0,c
  8840   002386  0E00               	movlw	0
  8841   002388  6E07               	movwf	(i2___fldiv@a+2)^0,c
  8842   00238A  0E00               	movlw	0
  8843   00238C  6E08               	movwf	(i2___fldiv@a+3)^0,c
  8844   00238E                     i2l4145:
  8845   00238E  5005               	movf	i2___fldiv@a^0,w,c
  8846   002390  1006               	iorwf	(i2___fldiv@a+1)^0,w,c
  8847   002392  1007               	iorwf	(i2___fldiv@a+2)^0,w,c
  8848   002394  1008               	iorwf	(i2___fldiv@a+3)^0,w,c
  8849   002396  A4D8               	btfss	status,2,c
  8850   002398  EFD0  F011         	goto	i2u448_41
  8851   00239C  EFD2  F011         	goto	i2u448_40
  8852   0023A0                     i2u448_41:
  8853   0023A0  EFEA  F011         	goto	i2l4157
  8854   0023A4                     i2u448_40:
  8855   0023A4  0E00               	movlw	0
  8856   0023A6  6E01               	movwf	i2___fldiv@b^0,c
  8857   0023A8  0E00               	movlw	0
  8858   0023AA  6E02               	movwf	(i2___fldiv@b+1)^0,c
  8859   0023AC  0E00               	movlw	0
  8860   0023AE  6E03               	movwf	(i2___fldiv@b+2)^0,c
  8861   0023B0  0E00               	movlw	0
  8862   0023B2  6E04               	movwf	(i2___fldiv@b+3)^0,c
  8863   0023B4  0E80               	movlw	128
  8864   0023B6  1203               	iorwf	(i2___fldiv@b+2)^0,f,c
  8865   0023B8  0E7F               	movlw	127
  8866   0023BA  1204               	iorwf	(i2___fldiv@b+3)^0,f,c
  8867   0023BC                     i2l4151:
  8868   0023BC  5011               	movf	i2___fldiv@sign^0,w,c
  8869   0023BE  1204               	iorwf	(i2___fldiv@b+3)^0,f,c
  8870   0023C0  C001  F001         	movff	i2___fldiv@b,?i2___fldiv
  8871   0023C4  C002  F002         	movff	i2___fldiv@b+1,?i2___fldiv+1
  8872   0023C8  C003  F003         	movff	i2___fldiv@b+2,?i2___fldiv+2
  8873   0023CC  C004  F004         	movff	i2___fldiv@b+3,?i2___fldiv+3
  8874   0023D0  EF2D  F013         	goto	i2l741
  8875   0023D4                     i2l4157:
  8876   0023D4  5018               	movf	i2___fldiv@bexp^0,w,c
  8877   0023D6  A4D8               	btfss	status,2,c
  8878   0023D8  EFF0  F011         	goto	i2u449_41
  8879   0023DC  EFF2  F011         	goto	i2u449_40
  8880   0023E0                     i2u449_41:
  8881   0023E0  EFFC  F011         	goto	i2l4165
  8882   0023E4                     i2u449_40:
  8883   0023E4  0E00               	movlw	0
  8884   0023E6  6E01               	movwf	?i2___fldiv^0,c
  8885   0023E8  0E00               	movlw	0
  8886   0023EA  6E02               	movwf	(?i2___fldiv+1)^0,c
  8887   0023EC  0E00               	movlw	0
  8888   0023EE  6E03               	movwf	(?i2___fldiv+2)^0,c
  8889   0023F0  0E00               	movlw	0
  8890   0023F2  6E04               	movwf	(?i2___fldiv+3)^0,c
  8891   0023F4  EF2D  F013         	goto	i2l741
  8892   0023F8                     i2l4165:
  8893   0023F8  5019               	movf	i2___fldiv@aexp^0,w,c
  8894   0023FA  C018  F009         	movff	i2___fldiv@bexp,??i2___fldiv
  8895   0023FE  6A0A               	clrf	(??i2___fldiv+1)^0,c
  8896   002400  5E09               	subwf	??i2___fldiv^0,f,c
  8897   002402  0E00               	movlw	0
  8898   002404  5A0A               	subwfb	(??i2___fldiv+1)^0,f,c
  8899   002406  0E7F               	movlw	127
  8900   002408  2409               	addwf	??i2___fldiv^0,w,c
  8901   00240A  6E12               	movwf	i2___fldiv@new_exp^0,c
  8902   00240C  0E00               	movlw	0
  8903   00240E  200A               	addwfc	(??i2___fldiv+1)^0,w,c
  8904   002410  6E13               	movwf	(i2___fldiv@new_exp+1)^0,c
  8905   002412  C001  F00D         	movff	i2___fldiv@b,i2___fldiv@rem
  8906   002416  C002  F00E         	movff	i2___fldiv@b+1,i2___fldiv@rem+1
  8907   00241A  C003  F00F         	movff	i2___fldiv@b+2,i2___fldiv@rem+2
  8908   00241E  C004  F010         	movff	i2___fldiv@b+3,i2___fldiv@rem+3
  8909   002422  0E00               	movlw	0
  8910   002424  6E01               	movwf	i2___fldiv@b^0,c
  8911   002426  0E00               	movlw	0
  8912   002428  6E02               	movwf	(i2___fldiv@b+1)^0,c
  8913   00242A  0E00               	movlw	0
  8914   00242C  6E03               	movwf	(i2___fldiv@b+2)^0,c
  8915   00242E  0E00               	movlw	0
  8916   002430  6E04               	movwf	(i2___fldiv@b+3)^0,c
  8917   002432  0E00               	movlw	0
  8918   002434  6E14               	movwf	i2___fldiv@grs^0,c
  8919   002436  0E00               	movlw	0
  8920   002438  6E15               	movwf	(i2___fldiv@grs+1)^0,c
  8921   00243A  0E00               	movlw	0
  8922   00243C  6E16               	movwf	(i2___fldiv@grs+2)^0,c
  8923   00243E  0E00               	movlw	0
  8924   002440  6E17               	movwf	(i2___fldiv@grs+3)^0,c
  8925   002442  0E00               	movlw	0
  8926   002444  6E19               	movwf	i2___fldiv@aexp^0,c
  8927   002446  EF5D  F012         	goto	i2l743
  8928   00244A                     i2l4175:
  8929   00244A  5019               	movf	i2___fldiv@aexp^0,w,c
  8930   00244C  B4D8               	btfsc	status,2,c
  8931   00244E  EF2B  F012         	goto	i2u450_41
  8932   002452  EF2D  F012         	goto	i2u450_40
  8933   002456                     i2u450_41:
  8934   002456  EF44  F012         	goto	i2l4183
  8935   00245A                     i2u450_40:
  8936   00245A  90D8               	bcf	status,0,c
  8937   00245C  360D               	rlcf	i2___fldiv@rem^0,f,c
  8938   00245E  360E               	rlcf	(i2___fldiv@rem+1)^0,f,c
  8939   002460  360F               	rlcf	(i2___fldiv@rem+2)^0,f,c
  8940   002462  3610               	rlcf	(i2___fldiv@rem+3)^0,f,c
  8941   002464  90D8               	bcf	status,0,c
  8942   002466  3601               	rlcf	i2___fldiv@b^0,f,c
  8943   002468  3602               	rlcf	(i2___fldiv@b+1)^0,f,c
  8944   00246A  3603               	rlcf	(i2___fldiv@b+2)^0,f,c
  8945   00246C  3604               	rlcf	(i2___fldiv@b+3)^0,f,c
  8946   00246E  AE17               	btfss	(i2___fldiv@grs+3)^0,7,c
  8947   002470  EF3C  F012         	goto	i2u451_41
  8948   002474  EF3E  F012         	goto	i2u451_40
  8949   002478                     i2u451_41:
  8950   002478  EF3F  F012         	goto	i2l746
  8951   00247C                     i2u451_40:
  8952   00247C  8001               	bsf	i2___fldiv@b^0,0,c
  8953   00247E                     i2l746:
  8954   00247E  90D8               	bcf	status,0,c
  8955   002480  3614               	rlcf	i2___fldiv@grs^0,f,c
  8956   002482  3615               	rlcf	(i2___fldiv@grs+1)^0,f,c
  8957   002484  3616               	rlcf	(i2___fldiv@grs+2)^0,f,c
  8958   002486  3617               	rlcf	(i2___fldiv@grs+3)^0,f,c
  8959   002488                     i2l4183:
  8960   002488  5005               	movf	i2___fldiv@a^0,w,c
  8961   00248A  5C0D               	subwf	i2___fldiv@rem^0,w,c
  8962   00248C  5006               	movf	(i2___fldiv@a+1)^0,w,c
  8963   00248E  580E               	subwfb	(i2___fldiv@rem+1)^0,w,c
  8964   002490  5007               	movf	(i2___fldiv@a+2)^0,w,c
  8965   002492  580F               	subwfb	(i2___fldiv@rem+2)^0,w,c
  8966   002494  5008               	movf	(i2___fldiv@a+3)^0,w,c
  8967   002496  5810               	subwfb	(i2___fldiv@rem+3)^0,w,c
  8968   002498  A0D8               	btfss	status,0,c
  8969   00249A  EF51  F012         	goto	i2u452_41
  8970   00249E  EF53  F012         	goto	i2u452_40
  8971   0024A2                     i2u452_41:
  8972   0024A2  EF5C  F012         	goto	i2l4189
  8973   0024A6                     i2u452_40:
  8974   0024A6  8C17               	bsf	(i2___fldiv@grs+3)^0,6,c
  8975   0024A8  5005               	movf	i2___fldiv@a^0,w,c
  8976   0024AA  5E0D               	subwf	i2___fldiv@rem^0,f,c
  8977   0024AC  5006               	movf	(i2___fldiv@a+1)^0,w,c
  8978   0024AE  5A0E               	subwfb	(i2___fldiv@rem+1)^0,f,c
  8979   0024B0  5007               	movf	(i2___fldiv@a+2)^0,w,c
  8980   0024B2  5A0F               	subwfb	(i2___fldiv@rem+2)^0,f,c
  8981   0024B4  5008               	movf	(i2___fldiv@a+3)^0,w,c
  8982   0024B6  5A10               	subwfb	(i2___fldiv@rem+3)^0,f,c
  8983   0024B8                     i2l4189:
  8984   0024B8  2A19               	incf	i2___fldiv@aexp^0,f,c
  8985   0024BA                     i2l743:
  8986   0024BA  0E19               	movlw	25
  8987   0024BC  6419               	cpfsgt	i2___fldiv@aexp^0,c
  8988   0024BE  EF63  F012         	goto	i2u453_41
  8989   0024C2  EF65  F012         	goto	i2u453_40
  8990   0024C6                     i2u453_41:
  8991   0024C6  EF25  F012         	goto	i2l4175
  8992   0024CA                     i2u453_40:
  8993   0024CA  500D               	movf	i2___fldiv@rem^0,w,c
  8994   0024CC  100E               	iorwf	(i2___fldiv@rem+1)^0,w,c
  8995   0024CE  100F               	iorwf	(i2___fldiv@rem+2)^0,w,c
  8996   0024D0  1010               	iorwf	(i2___fldiv@rem+3)^0,w,c
  8997   0024D2  B4D8               	btfsc	status,2,c
  8998   0024D4  EF6E  F012         	goto	i2u454_41
  8999   0024D8  EF70  F012         	goto	i2u454_40
  9000   0024DC                     i2u454_41:
  9001   0024DC  EF88  F012         	goto	i2l4201
  9002   0024E0                     i2u454_40:
  9003   0024E0  8014               	bsf	i2___fldiv@grs^0,0,c
  9004   0024E2  EF88  F012         	goto	i2l4201
  9005   0024E6                     i2l4195:
  9006   0024E6  90D8               	bcf	status,0,c
  9007   0024E8  3601               	rlcf	i2___fldiv@b^0,f,c
  9008   0024EA  3602               	rlcf	(i2___fldiv@b+1)^0,f,c
  9009   0024EC  3603               	rlcf	(i2___fldiv@b+2)^0,f,c
  9010   0024EE  3604               	rlcf	(i2___fldiv@b+3)^0,f,c
  9011   0024F0  AE17               	btfss	(i2___fldiv@grs+3)^0,7,c
  9012   0024F2  EF7D  F012         	goto	i2u455_41
  9013   0024F6  EF7F  F012         	goto	i2u455_40
  9014   0024FA                     i2u455_41:
  9015   0024FA  EF80  F012         	goto	i2l752
  9016   0024FE                     i2u455_40:
  9017   0024FE  8001               	bsf	i2___fldiv@b^0,0,c
  9018   002500                     i2l752:
  9019   002500  90D8               	bcf	status,0,c
  9020   002502  3614               	rlcf	i2___fldiv@grs^0,f,c
  9021   002504  3615               	rlcf	(i2___fldiv@grs+1)^0,f,c
  9022   002506  3616               	rlcf	(i2___fldiv@grs+2)^0,f,c
  9023   002508  3617               	rlcf	(i2___fldiv@grs+3)^0,f,c
  9024   00250A  0612               	decf	i2___fldiv@new_exp^0,f,c
  9025   00250C  A0D8               	btfss	status,0,c
  9026   00250E  0613               	decf	(i2___fldiv@new_exp+1)^0,f,c
  9027   002510                     i2l4201:
  9028   002510  AE03               	btfss	(i2___fldiv@b+2)^0,7,c
  9029   002512  EF8D  F012         	goto	i2u456_41
  9030   002516  EF8F  F012         	goto	i2u456_40
  9031   00251A                     i2u456_41:
  9032   00251A  EF73  F012         	goto	i2l4195
  9033   00251E                     i2u456_40:
  9034   00251E  0E00               	movlw	0
  9035   002520  6E19               	movwf	i2___fldiv@aexp^0,c
  9036   002522  AE17               	btfss	(i2___fldiv@grs+3)^0,7,c
  9037   002524  EF96  F012         	goto	i2u457_41
  9038   002528  EF98  F012         	goto	i2u457_40
  9039   00252C                     i2u457_41:
  9040   00252C  EFBC  F012         	goto	i2l754
  9041   002530                     i2u457_40:
  9042   002530  0EFF               	movlw	255
  9043   002532  1414               	andwf	i2___fldiv@grs^0,w,c
  9044   002534  6E09               	movwf	??i2___fldiv^0,c
  9045   002536  0EFF               	movlw	255
  9046   002538  1415               	andwf	(i2___fldiv@grs+1)^0,w,c
  9047   00253A  6E0A               	movwf	(??i2___fldiv+1)^0,c
  9048   00253C  0EFF               	movlw	255
  9049   00253E  1416               	andwf	(i2___fldiv@grs+2)^0,w,c
  9050   002540  6E0B               	movwf	(??i2___fldiv+2)^0,c
  9051   002542  0E7F               	movlw	127
  9052   002544  1417               	andwf	(i2___fldiv@grs+3)^0,w,c
  9053   002546  6E0C               	movwf	(??i2___fldiv+3)^0,c
  9054   002548  5009               	movf	??i2___fldiv^0,w,c
  9055   00254A  100A               	iorwf	(??i2___fldiv+1)^0,w,c
  9056   00254C  100B               	iorwf	(??i2___fldiv+2)^0,w,c
  9057   00254E  100C               	iorwf	(??i2___fldiv+3)^0,w,c
  9058   002550  B4D8               	btfsc	status,2,c
  9059   002552  EFAD  F012         	goto	i2u458_41
  9060   002556  EFAF  F012         	goto	i2u458_40
  9061   00255A                     i2u458_41:
  9062   00255A  EFB3  F012         	goto	i2l755
  9063   00255E                     i2u458_40:
  9064   00255E                     i2l4209:
  9065   00255E  0E01               	movlw	1
  9066   002560  6E19               	movwf	i2___fldiv@aexp^0,c
  9067   002562  EFBC  F012         	goto	i2l754
  9068   002566                     i2l755:
  9069   002566  A001               	btfss	i2___fldiv@b^0,0,c
  9070   002568  EFB8  F012         	goto	i2u459_41
  9071   00256C  EFBA  F012         	goto	i2u459_40
  9072   002570                     i2u459_41:
  9073   002570  EFBC  F012         	goto	i2l754
  9074   002574                     i2u459_40:
  9075   002574  EFAF  F012         	goto	i2l4209
  9076   002578                     i2l754:
  9077   002578  5019               	movf	i2___fldiv@aexp^0,w,c
  9078   00257A  B4D8               	btfsc	status,2,c
  9079   00257C  EFC2  F012         	goto	i2u460_41
  9080   002580  EFC4  F012         	goto	i2u460_40
  9081   002584                     i2u460_41:
  9082   002584  EFE8  F012         	goto	i2l4221
  9083   002588                     i2u460_40:
  9084   002588  0E01               	movlw	1
  9085   00258A  2601               	addwf	i2___fldiv@b^0,f,c
  9086   00258C  0E00               	movlw	0
  9087   00258E  2202               	addwfc	(i2___fldiv@b+1)^0,f,c
  9088   002590  2203               	addwfc	(i2___fldiv@b+2)^0,f,c
  9089   002592  2204               	addwfc	(i2___fldiv@b+3)^0,f,c
  9090   002594  A004               	btfss	(i2___fldiv@b+3)^0,0,c
  9091   002596  EFCF  F012         	goto	i2u461_41
  9092   00259A  EFD1  F012         	goto	i2u461_40
  9093   00259E                     i2u461_41:
  9094   00259E  EFE8  F012         	goto	i2l4221
  9095   0025A2                     i2u461_40:
  9096   0025A2  C001  F009         	movff	i2___fldiv@b,??i2___fldiv
  9097   0025A6  C002  F00A         	movff	i2___fldiv@b+1,??i2___fldiv+1
  9098   0025AA  C003  F00B         	movff	i2___fldiv@b+2,??i2___fldiv+2
  9099   0025AE  C004  F00C         	movff	i2___fldiv@b+3,??i2___fldiv+3
  9100   0025B2  340C               	rlcf	(??i2___fldiv+3)^0,w,c
  9101   0025B4  320C               	rrcf	(??i2___fldiv+3)^0,f,c
  9102   0025B6  320B               	rrcf	(??i2___fldiv+2)^0,f,c
  9103   0025B8  320A               	rrcf	(??i2___fldiv+1)^0,f,c
  9104   0025BA  3209               	rrcf	??i2___fldiv^0,f,c
  9105   0025BC  C009  F001         	movff	??i2___fldiv,i2___fldiv@b
  9106   0025C0  C00A  F002         	movff	??i2___fldiv+1,i2___fldiv@b+1
  9107   0025C4  C00B  F003         	movff	??i2___fldiv+2,i2___fldiv@b+2
  9108   0025C8  C00C  F004         	movff	??i2___fldiv+3,i2___fldiv@b+3
  9109   0025CC  4A12               	infsnz	i2___fldiv@new_exp^0,f,c
  9110   0025CE  2A13               	incf	(i2___fldiv@new_exp+1)^0,f,c
  9111   0025D0                     i2l4221:
  9112   0025D0  BE13               	btfsc	(i2___fldiv@new_exp+1)^0,7,c
  9113   0025D2  EFF3  F012         	goto	i2u462_41
  9114   0025D6  5013               	movf	(i2___fldiv@new_exp+1)^0,w,c
  9115   0025D8  E108               	bnz	i2u462_40
  9116   0025DA  2812               	incf	i2___fldiv@new_exp^0,w,c
  9117   0025DC  A0D8               	btfss	status,0,c
  9118   0025DE  EFF3  F012         	goto	i2u462_41
  9119   0025E2  EFF5  F012         	goto	i2u462_40
  9120   0025E6                     i2u462_41:
  9121   0025E6  EF00  F013         	goto	i2l4225
  9122   0025EA                     i2u462_40:
  9123   0025EA  0E00               	movlw	0
  9124   0025EC  6E13               	movwf	(i2___fldiv@new_exp+1)^0,c
  9125   0025EE  6812               	setf	i2___fldiv@new_exp^0,c
  9126   0025F0  0E00               	movlw	0
  9127   0025F2  6E01               	movwf	i2___fldiv@b^0,c
  9128   0025F4  0E00               	movlw	0
  9129   0025F6  6E02               	movwf	(i2___fldiv@b+1)^0,c
  9130   0025F8  0E00               	movlw	0
  9131   0025FA  6E03               	movwf	(i2___fldiv@b+2)^0,c
  9132   0025FC  0E00               	movlw	0
  9133   0025FE  6E04               	movwf	(i2___fldiv@b+3)^0,c
  9134   002600                     i2l4225:
  9135   002600  BE13               	btfsc	(i2___fldiv@new_exp+1)^0,7,c
  9136   002602  EF0D  F013         	goto	i2u463_40
  9137   002606  5013               	movf	(i2___fldiv@new_exp+1)^0,w,c
  9138   002608  E106               	bnz	i2u463_41
  9139   00260A  0412               	decf	i2___fldiv@new_exp^0,w,c
  9140   00260C  B0D8               	btfsc	status,0,c
  9141   00260E  EF0B  F013         	goto	i2u463_41
  9142   002612  EF0D  F013         	goto	i2u463_40
  9143   002616                     i2u463_41:
  9144   002616  EF1B  F013         	goto	i2l4229
  9145   00261A                     i2u463_40:
  9146   00261A  0E00               	movlw	0
  9147   00261C  6E13               	movwf	(i2___fldiv@new_exp+1)^0,c
  9148   00261E  0E00               	movlw	0
  9149   002620  6E12               	movwf	i2___fldiv@new_exp^0,c
  9150   002622  0E00               	movlw	0
  9151   002624  6E01               	movwf	i2___fldiv@b^0,c
  9152   002626  0E00               	movlw	0
  9153   002628  6E02               	movwf	(i2___fldiv@b+1)^0,c
  9154   00262A  0E00               	movlw	0
  9155   00262C  6E03               	movwf	(i2___fldiv@b+2)^0,c
  9156   00262E  0E00               	movlw	0
  9157   002630  6E04               	movwf	(i2___fldiv@b+3)^0,c
  9158   002632  0E00               	movlw	0
  9159   002634  6E11               	movwf	i2___fldiv@sign^0,c
  9160   002636                     i2l4229:
  9161   002636  C012  F018         	movff	i2___fldiv@new_exp,i2___fldiv@bexp
  9162   00263A  A018               	btfss	i2___fldiv@bexp^0,0,c
  9163   00263C  EF22  F013         	goto	i2u464_41
  9164   002640  EF24  F013         	goto	i2u464_40
  9165   002644                     i2u464_41:
  9166   002644  EF27  F013         	goto	i2l4235
  9167   002648                     i2u464_40:
  9168   002648  8E03               	bsf	(i2___fldiv@b+2)^0,7,c
  9169   00264A  EF28  F013         	goto	i2l4237
  9170   00264E                     i2l4235:
  9171   00264E  9E03               	bcf	(i2___fldiv@b+2)^0,7,c
  9172   002650                     i2l4237:
  9173   002650  90D8               	bcf	status,0,c
  9174   002652  3018               	rrcf	i2___fldiv@bexp^0,w,c
  9175   002654  6E04               	movwf	(i2___fldiv@b+3)^0,c
  9176   002656  EFDE  F011         	goto	i2l4151
  9177   00265A                     i2l741:
  9178   00265A  0012               	return		;funcret
  9179   00265C                     __end_ofi2___fldiv:
  9180                           	callstack 0
  9181                           
  9182 ;; *************** function ___xxtofl *****************
  9183 ;; Defined at:
  9184 ;;		line 10 in file "C:\Program Files\Microchip\xc8\v2.45\pic\sources\c99\common\xxtofl.c"
  9185 ;; Parameters:    Size  Location     Type
  9186 ;;  sign            1    wreg     unsigned char 
  9187 ;;  val             4    0[COMRAM] long 
  9188 ;; Auto vars:     Size  Location     Type
  9189 ;;  sign            1    8[COMRAM] unsigned char 
  9190 ;;  arg             4   10[COMRAM] unsigned long 
  9191 ;;  exp             1    9[COMRAM] unsigned char 
  9192 ;; Return value:  Size  Location     Type
  9193 ;;                  4    0[COMRAM] unsigned char 
  9194 ;; Registers used:
  9195 ;;		wreg, status,2, status,0
  9196 ;; Tracked objects:
  9197 ;;		On entry : 0/0
  9198 ;;		On exit  : 0/0
  9199 ;;		Unchanged: 0/0
  9200 ;; Data sizes:     COMRAM   BANK0   BANK1   BANK2   BANK3   BANK4   BANK5   BANK6   BANK7
  9201 ;;      Params:         4       0       0       0       0       0       0       0       0
  9202 ;;      Locals:         6       0       0       0       0       0       0       0       0
  9203 ;;      Temps:          4       0       0       0       0       0       0       0       0
  9204 ;;      Totals:        14       0       0       0       0       0       0       0       0
  9205 ;;Total ram usage:       14 bytes
  9206 ;; Hardware stack levels used: 1
  9207 ;; This function calls:
  9208 ;;		Nothing
  9209 ;; This function is called by:
  9210 ;;		_INT_CCP1
  9211 ;; This function uses a non-reentrant model
  9212 ;;
  9213                           
  9214                           	psect	text35
  9215   002B76                     __ptext35:
  9216                           	callstack 0
  9217   002B76                     ___xxtofl:
  9218                           	callstack 21
  9219                           
  9220                           ;incstack = 0
  9221                           ;___xxtofl@sign stored from wreg
  9222   002B76  6E09               	movwf	___xxtofl@sign^0,c
  9223   002B78  5009               	movf	___xxtofl@sign^0,w,c
  9224   002B7A  B4D8               	btfsc	status,2,c
  9225   002B7C  EFC2  F015         	goto	i2u425_41
  9226   002B80  EFC4  F015         	goto	i2u425_40
  9227   002B84                     i2u425_41:
  9228   002B84  EFE6  F015         	goto	i2l814
  9229   002B88                     i2u425_40:
  9230   002B88  BE04               	btfsc	(___xxtofl@val+3)^0,7,c
  9231   002B8A  EFCB  F015         	goto	i2u426_40
  9232   002B8E  EFC9  F015         	goto	i2u426_41
  9233   002B92                     i2u426_41:
  9234   002B92  EFE6  F015         	goto	i2l814
  9235   002B96                     i2u426_40:
  9236   002B96  C001  F005         	movff	___xxtofl@val,??___xxtofl
  9237   002B9A  C002  F006         	movff	___xxtofl@val+1,??___xxtofl+1
  9238   002B9E  C003  F007         	movff	___xxtofl@val+2,??___xxtofl+2
  9239   002BA2  C004  F008         	movff	___xxtofl@val+3,??___xxtofl+3
  9240   002BA6  1E05               	comf	??___xxtofl^0,f,c
  9241   002BA8  1E06               	comf	(??___xxtofl+1)^0,f,c
  9242   002BAA  1E07               	comf	(??___xxtofl+2)^0,f,c
  9243   002BAC  1E08               	comf	(??___xxtofl+3)^0,f,c
  9244   002BAE  2A05               	incf	??___xxtofl^0,f,c
  9245   002BB0  0E00               	movlw	0
  9246   002BB2  2206               	addwfc	(??___xxtofl+1)^0,f,c
  9247   002BB4  2207               	addwfc	(??___xxtofl+2)^0,f,c
  9248   002BB6  2208               	addwfc	(??___xxtofl+3)^0,f,c
  9249   002BB8  C005  F00B         	movff	??___xxtofl,___xxtofl@arg
  9250   002BBC  C006  F00C         	movff	??___xxtofl+1,___xxtofl@arg+1
  9251   002BC0  C007  F00D         	movff	??___xxtofl+2,___xxtofl@arg+2
  9252   002BC4  C008  F00E         	movff	??___xxtofl+3,___xxtofl@arg+3
  9253   002BC8  EFEE  F015         	goto	i2l4023
  9254   002BCC                     i2l814:
  9255   002BCC  C001  F00B         	movff	___xxtofl@val,___xxtofl@arg
  9256   002BD0  C002  F00C         	movff	___xxtofl@val+1,___xxtofl@arg+1
  9257   002BD4  C003  F00D         	movff	___xxtofl@val+2,___xxtofl@arg+2
  9258   002BD8  C004  F00E         	movff	___xxtofl@val+3,___xxtofl@arg+3
  9259   002BDC                     i2l4023:
  9260   002BDC  5001               	movf	___xxtofl@val^0,w,c
  9261   002BDE  1002               	iorwf	(___xxtofl@val+1)^0,w,c
  9262   002BE0  1003               	iorwf	(___xxtofl@val+2)^0,w,c
  9263   002BE2  1004               	iorwf	(___xxtofl@val+3)^0,w,c
  9264   002BE4  A4D8               	btfss	status,2,c
  9265   002BE6  EFF7  F015         	goto	i2u427_41
  9266   002BEA  EFF9  F015         	goto	i2u427_40
  9267   002BEE                     i2u427_41:
  9268   002BEE  EF03  F016         	goto	i2l4029
  9269   002BF2                     i2u427_40:
  9270   002BF2  0E00               	movlw	0
  9271   002BF4  6E01               	movwf	?___xxtofl^0,c
  9272   002BF6  0E00               	movlw	0
  9273   002BF8  6E02               	movwf	(?___xxtofl+1)^0,c
  9274   002BFA  0E00               	movlw	0
  9275   002BFC  6E03               	movwf	(?___xxtofl+2)^0,c
  9276   002BFE  0E00               	movlw	0
  9277   002C00  6E04               	movwf	(?___xxtofl+3)^0,c
  9278   002C02  EF94  F016         	goto	i2l817
  9279   002C06                     i2l4029:
  9280   002C06  0E96               	movlw	150
  9281   002C08  6E0A               	movwf	___xxtofl@exp^0,c
  9282   002C0A  EF0D  F016         	goto	i2l4033
  9283   002C0E                     i2l4031:
  9284   002C0E  2A0A               	incf	___xxtofl@exp^0,f,c
  9285   002C10  90D8               	bcf	status,0,c
  9286   002C12  320E               	rrcf	(___xxtofl@arg+3)^0,f,c
  9287   002C14  320D               	rrcf	(___xxtofl@arg+2)^0,f,c
  9288   002C16  320C               	rrcf	(___xxtofl@arg+1)^0,f,c
  9289   002C18  320B               	rrcf	___xxtofl@arg^0,f,c
  9290   002C1A                     i2l4033:
  9291   002C1A  0E00               	movlw	0
  9292   002C1C  140B               	andwf	___xxtofl@arg^0,w,c
  9293   002C1E  6E05               	movwf	??___xxtofl^0,c
  9294   002C20  0E00               	movlw	0
  9295   002C22  140C               	andwf	(___xxtofl@arg+1)^0,w,c
  9296   002C24  6E06               	movwf	(??___xxtofl+1)^0,c
  9297   002C26  0E00               	movlw	0
  9298   002C28  140D               	andwf	(___xxtofl@arg+2)^0,w,c
  9299   002C2A  6E07               	movwf	(??___xxtofl+2)^0,c
  9300   002C2C  0EFE               	movlw	254
  9301   002C2E  140E               	andwf	(___xxtofl@arg+3)^0,w,c
  9302   002C30  6E08               	movwf	(??___xxtofl+3)^0,c
  9303   002C32  5005               	movf	??___xxtofl^0,w,c
  9304   002C34  1006               	iorwf	(??___xxtofl+1)^0,w,c
  9305   002C36  1007               	iorwf	(??___xxtofl+2)^0,w,c
  9306   002C38  1008               	iorwf	(??___xxtofl+3)^0,w,c
  9307   002C3A  A4D8               	btfss	status,2,c
  9308   002C3C  EF22  F016         	goto	i2u428_41
  9309   002C40  EF24  F016         	goto	i2u428_40
  9310   002C44                     i2u428_41:
  9311   002C44  EF07  F016         	goto	i2l4031
  9312   002C48                     i2u428_40:
  9313   002C48  EF32  F016         	goto	i2l821
  9314   002C4C                     i2l4035:
  9315   002C4C  2A0A               	incf	___xxtofl@exp^0,f,c
  9316   002C4E  0E01               	movlw	1
  9317   002C50  260B               	addwf	___xxtofl@arg^0,f,c
  9318   002C52  0E00               	movlw	0
  9319   002C54  220C               	addwfc	(___xxtofl@arg+1)^0,f,c
  9320   002C56  220D               	addwfc	(___xxtofl@arg+2)^0,f,c
  9321   002C58  220E               	addwfc	(___xxtofl@arg+3)^0,f,c
  9322   002C5A  90D8               	bcf	status,0,c
  9323   002C5C  320E               	rrcf	(___xxtofl@arg+3)^0,f,c
  9324   002C5E  320D               	rrcf	(___xxtofl@arg+2)^0,f,c
  9325   002C60  320C               	rrcf	(___xxtofl@arg+1)^0,f,c
  9326   002C62  320B               	rrcf	___xxtofl@arg^0,f,c
  9327   002C64                     i2l821:
  9328   002C64  0E00               	movlw	0
  9329   002C66  140B               	andwf	___xxtofl@arg^0,w,c
  9330   002C68  6E05               	movwf	??___xxtofl^0,c
  9331   002C6A  0E00               	movlw	0
  9332   002C6C  140C               	andwf	(___xxtofl@arg+1)^0,w,c
  9333   002C6E  6E06               	movwf	(??___xxtofl+1)^0,c
  9334   002C70  0E00               	movlw	0
  9335   002C72  140D               	andwf	(___xxtofl@arg+2)^0,w,c
  9336   002C74  6E07               	movwf	(??___xxtofl+2)^0,c
  9337   002C76  0EFF               	movlw	255
  9338   002C78  140E               	andwf	(___xxtofl@arg+3)^0,w,c
  9339   002C7A  6E08               	movwf	(??___xxtofl+3)^0,c
  9340   002C7C  5005               	movf	??___xxtofl^0,w,c
  9341   002C7E  1006               	iorwf	(??___xxtofl+1)^0,w,c
  9342   002C80  1007               	iorwf	(??___xxtofl+2)^0,w,c
  9343   002C82  1008               	iorwf	(??___xxtofl+3)^0,w,c
  9344   002C84  A4D8               	btfss	status,2,c
  9345   002C86  EF47  F016         	goto	i2u429_41
  9346   002C8A  EF49  F016         	goto	i2u429_40
  9347   002C8E                     i2u429_41:
  9348   002C8E  EF26  F016         	goto	i2l4035
  9349   002C92                     i2u429_40:
  9350   002C92  EF51  F016         	goto	i2l4043
  9351   002C96                     i2l4041:
  9352   002C96  060A               	decf	___xxtofl@exp^0,f,c
  9353   002C98  90D8               	bcf	status,0,c
  9354   002C9A  360B               	rlcf	___xxtofl@arg^0,f,c
  9355   002C9C  360C               	rlcf	(___xxtofl@arg+1)^0,f,c
  9356   002C9E  360D               	rlcf	(___xxtofl@arg+2)^0,f,c
  9357   002CA0  360E               	rlcf	(___xxtofl@arg+3)^0,f,c
  9358   002CA2                     i2l4043:
  9359   002CA2  BE0D               	btfsc	(___xxtofl@arg+2)^0,7,c
  9360   002CA4  EF56  F016         	goto	i2u430_41
  9361   002CA8  EF58  F016         	goto	i2u430_40
  9362   002CAC                     i2u430_41:
  9363   002CAC  EF60  F016         	goto	i2l828
  9364   002CB0                     i2u430_40:
  9365   002CB0  0E02               	movlw	2
  9366   002CB2  600A               	cpfslt	___xxtofl@exp^0,c
  9367   002CB4  EF5E  F016         	goto	i2u431_41
  9368   002CB8  EF60  F016         	goto	i2u431_40
  9369   002CBC                     i2u431_41:
  9370   002CBC  EF4B  F016         	goto	i2l4041
  9371   002CC0                     i2u431_40:
  9372   002CC0                     i2l828:
  9373   002CC0  B00A               	btfsc	___xxtofl@exp^0,0,c
  9374   002CC2  EF65  F016         	goto	i2u432_41
  9375   002CC6  EF67  F016         	goto	i2u432_40
  9376   002CCA                     i2u432_41:
  9377   002CCA  EF68  F016         	goto	i2l4049
  9378   002CCE                     i2u432_40:
  9379   002CCE  9E0D               	bcf	(___xxtofl@arg+2)^0,7,c
  9380   002CD0                     i2l4049:
  9381   002CD0  90D8               	bcf	status,0,c
  9382   002CD2  320A               	rrcf	___xxtofl@exp^0,f,c
  9383   002CD4  C00A  F005         	movff	___xxtofl@exp,??___xxtofl
  9384   002CD8  6A06               	clrf	(??___xxtofl+1)^0,c
  9385   002CDA  6A07               	clrf	(??___xxtofl+2)^0,c
  9386   002CDC  6A08               	clrf	(??___xxtofl+3)^0,c
  9387   002CDE  C005  F008         	movff	??___xxtofl,??___xxtofl+3
  9388   002CE2  6A07               	clrf	(??___xxtofl+2)^0,c
  9389   002CE4  6A06               	clrf	(??___xxtofl+1)^0,c
  9390   002CE6  6A05               	clrf	??___xxtofl^0,c
  9391   002CE8  5005               	movf	??___xxtofl^0,w,c
  9392   002CEA  120B               	iorwf	___xxtofl@arg^0,f,c
  9393   002CEC  5006               	movf	(??___xxtofl+1)^0,w,c
  9394   002CEE  120C               	iorwf	(___xxtofl@arg+1)^0,f,c
  9395   002CF0  5007               	movf	(??___xxtofl+2)^0,w,c
  9396   002CF2  120D               	iorwf	(___xxtofl@arg+2)^0,f,c
  9397   002CF4  5008               	movf	(??___xxtofl+3)^0,w,c
  9398   002CF6  120E               	iorwf	(___xxtofl@arg+3)^0,f,c
  9399   002CF8  5009               	movf	___xxtofl@sign^0,w,c
  9400   002CFA  B4D8               	btfsc	status,2,c
  9401   002CFC  EF82  F016         	goto	i2u433_41
  9402   002D00  EF84  F016         	goto	i2u433_40
  9403   002D04                     i2u433_41:
  9404   002D04  EF8C  F016         	goto	i2l4059
  9405   002D08                     i2u433_40:
  9406   002D08  BE04               	btfsc	(___xxtofl@val+3)^0,7,c
  9407   002D0A  EF8B  F016         	goto	i2u434_40
  9408   002D0E  EF89  F016         	goto	i2u434_41
  9409   002D12                     i2u434_41:
  9410   002D12  EF8C  F016         	goto	i2l4059
  9411   002D16                     i2u434_40:
  9412   002D16  8E0E               	bsf	(___xxtofl@arg+3)^0,7,c
  9413   002D18                     i2l4059:
  9414   002D18  C00B  F001         	movff	___xxtofl@arg,?___xxtofl
  9415   002D1C  C00C  F002         	movff	___xxtofl@arg+1,?___xxtofl+1
  9416   002D20  C00D  F003         	movff	___xxtofl@arg+2,?___xxtofl+2
  9417   002D24  C00E  F004         	movff	___xxtofl@arg+3,?___xxtofl+3
  9418   002D28                     i2l817:
  9419   002D28  0012               	return		;funcret
  9420   002D2A                     __end_of___xxtofl:
  9421                           	callstack 0
  9422                           
  9423                           	psect	rparam
  9424   000000                     
  9425                           	psect	temp
  9426   000034                     btemp:
  9427                           	callstack 0
  9428   000034                     	ds	1
  9429   000000                     int$flags	set	btemp
  9430   000000                     wtemp8	set	btemp+1
  9431   000000                     ttemp5	set	btemp+1
  9432   000000                     ttemp6	set	btemp+4
  9433   000000                     ttemp7	set	btemp+8
  9434                           
  9435                           	psect	config
  9436                           
  9437                           ;Config register CONFIG1L @ 0x300000
  9438                           ;	PLL Prescaler Selection bits
  9439                           ;	PLLDIV = 2, Divide by 2 (8 MHz oscillator input)
  9440                           ;	System Clock Postscaler Selection bits
  9441                           ;	CPUDIV = OSC1_PLL2, [Primary Oscillator Src: /1][96 MHz PLL Src: /2]
  9442                           ;	USB Clock Selection bit (used in Full-Speed USB mode only; UCFG:FSEN = 1)
  9443                           ;	USBDIV = 2, USB clock source comes from the 96 MHz PLL divided by 2
  9444   300000                     	org	3145728
  9445   300000  21                 	db	33
  9446                           
  9447                           ;Config register CONFIG1H @ 0x300001
  9448                           ;	Oscillator Selection bits
  9449                           ;	FOSC = HSPLL_HS, HS oscillator, PLL enabled (HSPLL)
  9450                           ;	Fail-Safe Clock Monitor Enable bit
  9451                           ;	FCMEN = OFF, Fail-Safe Clock Monitor disabled
  9452                           ;	Internal/External Oscillator Switchover bit
  9453                           ;	IESO = OFF, Oscillator Switchover mode disabled
  9454   300001                     	org	3145729
  9455   300001  0E                 	db	14
  9456                           
  9457                           ;Config register CONFIG2L @ 0x300002
  9458                           ;	Power-up Timer Enable bit
  9459                           ;	PWRT = OFF, PWRT disabled
  9460                           ;	Brown-out Reset Enable bits
  9461                           ;	BOR = OFF, Brown-out Reset disabled in hardware and software
  9462                           ;	Brown-out Reset Voltage bits
  9463                           ;	BORV = 3, Minimum setting 2.05V
  9464                           ;	USB Voltage Regulator Enable bit
  9465                           ;	VREGEN = OFF, USB voltage regulator disabled
  9466   300002                     	org	3145730
  9467   300002  19                 	db	25
  9468                           
  9469                           ;Config register CONFIG2H @ 0x300003
  9470                           ;	Watchdog Timer Enable bit
  9471                           ;	WDT = OFF, WDT disabled (control is placed on the SWDTEN bit)
  9472                           ;	Watchdog Timer Postscale Select bits
  9473                           ;	WDTPS = 32768, 1:32768
  9474   300003                     	org	3145731
  9475   300003  1E                 	db	30
  9476                           
  9477                           ; Padding undefined space
  9478   300004                     	org	3145732
  9479   300004  FF                 	db	255
  9480                           
  9481                           ;Config register CONFIG3H @ 0x300005
  9482                           ;	CCP2 MUX bit
  9483                           ;	CCP2MX = ON, CCP2 input/output is multiplexed with RC1
  9484                           ;	PORTB A/D Enable bit
  9485                           ;	PBADEN = OFF, PORTB<4:0> pins are configured as digital I/O on Reset
  9486                           ;	Low-Power Timer 1 Oscillator Enable bit
  9487                           ;	LPT1OSC = OFF, Timer1 configured for higher power operation
  9488                           ;	MCLR Pin Enable bit
  9489                           ;	MCLRE = ON, MCLR pin enabled; RE3 input pin disabled
  9490   300005                     	org	3145733
  9491   300005  81                 	db	129
  9492                           
  9493                           ;Config register CONFIG4L @ 0x300006
  9494                           ;	Stack Full/Underflow Reset Enable bit
  9495                           ;	STVREN = ON, Stack full/underflow will cause Reset
  9496                           ;	Single-Supply ICSP Enable bit
  9497                           ;	LVP = OFF, Single-Supply ICSP disabled
  9498                           ;	Dedicated In-Circuit Debug/Programming Port (ICPORT) Enable bit
  9499                           ;	ICPRT = OFF, ICPORT disabled
  9500                           ;	Extended Instruction Set Enable bit
  9501                           ;	XINST = OFF, Instruction set extension and Indexed Addressing mode disabled (Legacy mo
      +                          de)
  9502                           ;	Background Debugger Enable bit
  9503                           ;	DEBUG = 0x1, unprogrammed default
  9504   300006                     	org	3145734
  9505   300006  81                 	db	129
  9506                           
  9507                           ; Padding undefined space
  9508   300007                     	org	3145735
  9509   300007  FF                 	db	255
  9510                           
  9511                           ;Config register CONFIG5L @ 0x300008
  9512                           ;	Code Protection bit
  9513                           ;	CP0 = OFF, Block 0 (000800-001FFFh) is not code-protected
  9514                           ;	Code Protection bit
  9515                           ;	CP1 = OFF, Block 1 (002000-003FFFh) is not code-protected
  9516                           ;	Code Protection bit
  9517                           ;	CP2 = OFF, Block 2 (004000-005FFFh) is not code-protected
  9518                           ;	Code Protection bit
  9519                           ;	CP3 = OFF, Block 3 (006000-007FFFh) is not code-protected
  9520   300008                     	org	3145736
  9521   300008  0F                 	db	15
  9522                           
  9523                           ;Config register CONFIG5H @ 0x300009
  9524                           ;	Boot Block Code Protection bit
  9525                           ;	CPB = OFF, Boot block (000000-0007FFh) is not code-protected
  9526                           ;	Data EEPROM Code Protection bit
  9527                           ;	CPD = OFF, Data EEPROM is not code-protected
  9528   300009                     	org	3145737
  9529   300009  C0                 	db	192
  9530                           
  9531                           ;Config register CONFIG6L @ 0x30000A
  9532                           ;	Write Protection bit
  9533                           ;	WRT0 = OFF, Block 0 (000800-001FFFh) is not write-protected
  9534                           ;	Write Protection bit
  9535                           ;	WRT1 = OFF, Block 1 (002000-003FFFh) is not write-protected
  9536                           ;	Write Protection bit
  9537                           ;	WRT2 = OFF, Block 2 (004000-005FFFh) is not write-protected
  9538                           ;	Write Protection bit
  9539                           ;	WRT3 = OFF, Block 3 (006000-007FFFh) is not write-protected
  9540   30000A                     	org	3145738
  9541   30000A  0F                 	db	15
  9542                           
  9543                           ;Config register CONFIG6H @ 0x30000B
  9544                           ;	Configuration Register Write Protection bit
  9545                           ;	WRTC = OFF, Configuration registers (300000-3000FFh) are not write-protected
  9546                           ;	Boot Block Write Protection bit
  9547                           ;	WRTB = OFF, Boot block (000000-0007FFh) is not write-protected
  9548                           ;	Data EEPROM Write Protection bit
  9549                           ;	WRTD = OFF, Data EEPROM is not write-protected
  9550   30000B                     	org	3145739
  9551   30000B  E0                 	db	224
  9552                           
  9553                           ;Config register CONFIG7L @ 0x30000C
  9554                           ;	Table Read Protection bit
  9555                           ;	EBTR0 = OFF, Block 0 (000800-001FFFh) is not protected from table reads executed in ot
      +                          her blocks
  9556                           ;	Table Read Protection bit
  9557                           ;	EBTR1 = OFF, Block 1 (002000-003FFFh) is not protected from table reads executed in ot
      +                          her blocks
  9558                           ;	Table Read Protection bit
  9559                           ;	EBTR2 = OFF, Block 2 (004000-005FFFh) is not protected from table reads executed in ot
      +                          her blocks
  9560                           ;	Table Read Protection bit
  9561                           ;	EBTR3 = OFF, Block 3 (006000-007FFFh) is not protected from table reads executed in ot
      +                          her blocks
  9562   30000C                     	org	3145740
  9563   30000C  0F                 	db	15
  9564                           
  9565                           ;Config register CONFIG7H @ 0x30000D
  9566                           ;	Boot Block Table Read Protection bit
  9567                           ;	EBTRB = OFF, Boot block (000000-0007FFh) is not protected from table reads executed in
      +                           other blocks
  9568   30000D                     	org	3145741
  9569   30000D  40                 	db	64
  9570                           tosu	equ	0xFFF
  9571                           tosh	equ	0xFFE
  9572                           tosl	equ	0xFFD
  9573                           stkptr	equ	0xFFC
  9574                           pclatu	equ	0xFFB
  9575                           pclath	equ	0xFFA
  9576                           pcl	equ	0xFF9
  9577                           tblptru	equ	0xFF8
  9578                           tblptrh	equ	0xFF7
  9579                           tblptrl	equ	0xFF6
  9580                           tablat	equ	0xFF5
  9581                           prodh	equ	0xFF4
  9582                           prodl	equ	0xFF3
  9583                           indf0	equ	0xFEF
  9584                           postinc0	equ	0xFEE
  9585                           postdec0	equ	0xFED
  9586                           preinc0	equ	0xFEC
  9587                           plusw0	equ	0xFEB
  9588                           fsr0h	equ	0xFEA
  9589                           fsr0l	equ	0xFE9
  9590                           wreg	equ	0xFE8
  9591                           indf1	equ	0xFE7
  9592                           postinc1	equ	0xFE6
  9593                           postdec1	equ	0xFE5
  9594                           preinc1	equ	0xFE4
  9595                           plusw1	equ	0xFE3
  9596                           fsr1h	equ	0xFE2
  9597                           fsr1l	equ	0xFE1
  9598                           bsr	equ	0xFE0
  9599                           indf2	equ	0xFDF
  9600                           postinc2	equ	0xFDE
  9601                           postdec2	equ	0xFDD
  9602                           preinc2	equ	0xFDC
  9603                           plusw2	equ	0xFDB
  9604                           fsr2h	equ	0xFDA
  9605                           fsr2l	equ	0xFD9
  9606                           status	equ	0xFD8

Data Sizes:
    Strings     20
    Constant    0
    Data        0
    BSS         121
    Persistent  0
    Stack       0

Auto Spaces:
    Space          Size  Autos    Used
    COMRAM           94     45      51
    BANK0           160    125     160
    BANK1           256     13      93
    BANK2           256      0       0
    BANK3           256      0       0
    BANK4           256      0       0
    BANK5           256      0       0
    BANK6           256      0       0
    BANK7           256      0       0

Pointer List with Targets:

    efgtoa@fp	PTR struct _IO_FILE size(2) Largest target is 12
		 -> sprintf@f(BANK1[12]), 

    f$.$buffer	PTR unsigned char  size(2) Largest target is 0

    f$.$source	PTR const unsigned char  size(2) Largest target is 0

    fputc@fp	PTR struct _IO_FILE size(2) Largest target is 12
		 -> sprintf@f(BANK1[12]), 

    fputc@fp$.$buffer	PTR unsigned char  size(2) Largest target is 0

    fputc@fp$.$source	PTR const unsigned char  size(2) Largest target is 0

    fputs@fp	PTR struct _IO_FILE size(2) Largest target is 12
		 -> sprintf@f(BANK1[12]), 

    fputs@s	PTR const unsigned char  size(2) Largest target is 80
		 -> dbuf(BANK1[80]), 

    Lcd_Write_String@a	PTR const unsigned char  size(1) Largest target is 20
		 -> buffer(BANK0[20]), 

    memcpy@d	PTR unsigned char  size(2) Largest target is 80
		 -> dbuf(BANK1[80]), 

    memcpy@d1	PTR void  size(2) Largest target is 80
		 -> dbuf(BANK1[80]), 

    memcpy@s	PTR const unsigned char  size(2) Largest target is 80
		 -> dbuf(BANK1[80]), 

    memcpy@s1	PTR const void  size(2) Largest target is 80
		 -> dbuf(BANK1[80]), 

    pad@buf	PTR unsigned char  size(2) Largest target is 80
		 -> dbuf(BANK1[80]), 

    pad@fp	PTR struct _IO_FILE size(2) Largest target is 12
		 -> sprintf@f(BANK1[12]), 

    S886$buffer	PTR unsigned char  size(2) Largest target is 0

    S886$source	PTR const unsigned char  size(2) Largest target is 0

    sp__memcpy	PTR void  size(2) Largest target is 80
		 -> dbuf(BANK1[80]), 

    sp__strcpy	PTR unsigned char  size(2) Largest target is 80
		 -> dbuf(BANK1[80]), 

    sprintf@ap	PTR void [1] size(1) Largest target is 2
		 -> ?_sprintf(BANK0[2]), 

    sprintf@fmt	PTR const unsigned char  size(1) Largest target is 6
		 -> STR_1(CODE[6]), STR_2(CODE[6]), 

    sprintf@s	PTR unsigned char  size(1) Largest target is 20
		 -> buffer(BANK0[20]), 

    strcpy@d	PTR unsigned char  size(2) Largest target is 80
		 -> dbuf(BANK1[80]), 

    strcpy@dest	PTR unsigned char  size(2) Largest target is 80
		 -> dbuf(BANK1[80]), 

    strcpy@src	PTR const unsigned char  size(1) Largest target is 4
		 -> STR_3(CODE[4]), STR_6(CODE[4]), 

    vfpfcnvrt@ap	PTR PTR void  size(2) Largest target is 1
		 -> sprintf@ap(BANK1[1]), 

    vfpfcnvrt@cp	PTR unsigned char  size(1) Largest target is 6
		 -> STR_1(CODE[6]), STR_2(CODE[6]), 

    vfpfcnvrt@fmt	PTR PTR unsigned char  size(1) Largest target is 1
		 -> vfprintf@cfmt(BANK0[1]), 

    vfpfcnvrt@fp	PTR struct _IO_FILE size(2) Largest target is 12
		 -> sprintf@f(BANK1[12]), 

    vfprintf@ap	PTR PTR void  size(2) Largest target is 1
		 -> sprintf@ap(BANK1[1]), 

    vfprintf@cfmt	PTR unsigned char  size(1) Largest target is 6
		 -> STR_1(CODE[6]), STR_2(CODE[6]), 

    vfprintf@fmt	PTR const unsigned char  size(1) Largest target is 6
		 -> STR_1(CODE[6]), STR_2(CODE[6]), 

    vfprintf@fp	PTR struct _IO_FILE size(2) Largest target is 12
		 -> sprintf@f(BANK1[12]), 


Critical Paths under _main in COMRAM

    _main->_Lcd_Write_String
    _efgtoa->___fltol
    _Lcd_Write_Char->_Lcd_Port
    _Lcd_Set_Cursor->_Lcd_Cmd
    _Lcd_Init->_Lcd_Cmd
    _Lcd_Clear->_Lcd_Cmd
    _Lcd_Cmd->_Lcd_Port

Critical Paths under _INT_CCP1 in COMRAM

    _INT_CCP1->i2___flmul
    i2___fltol->i2___fldiv
    i2___flmul->___xxtofl

Critical Paths under _main in BANK0

    _main->_sprintf
    _sprintf->_vfprintf
    _vfprintf->_vfpfcnvrt
    _vfpfcnvrt->_efgtoa
    _efgtoa->_floorf
    _pad->_fputs
    _fputs->_fputc
    _floorf->___fldiv
    ___flsub->___flmul
    ___flge->___flmul
    _Lcd_Write_String->_Lcd_Write_Char
    _Lcd_Set_Cursor->_Lcd_Cmd
    _Lcd_Init->_Lcd_Cmd
    _Lcd_Clear->_Lcd_Cmd

Critical Paths under _INT_CCP1 in BANK0

    None.

Critical Paths under _main in BANK1

    _main->_sprintf

Critical Paths under _INT_CCP1 in BANK1

    None.

Critical Paths under _main in BANK2

    None.

Critical Paths under _INT_CCP1 in BANK2

    None.

Critical Paths under _main in BANK3

    None.

Critical Paths under _INT_CCP1 in BANK3

    None.

Critical Paths under _main in BANK4

    None.

Critical Paths under _INT_CCP1 in BANK4

    None.

Critical Paths under _main in BANK5

    None.

Critical Paths under _INT_CCP1 in BANK5

    None.

Critical Paths under _main in BANK6

    None.

Critical Paths under _INT_CCP1 in BANK6

    None.

Critical Paths under _main in BANK7

    None.

Critical Paths under _INT_CCP1 in BANK7

    None.

Call Graph Tables:

 ---------------------------------------------------------------------------------
 (Depth) Function   	        Calls       Base Space   Used Autos Params    Refs
 ---------------------------------------------------------------------------------
 (0) _main                                                 2     2      0   35439
                                            123 BANK0      2     2      0
                          _Lcd_Clear
                           _Lcd_Init
                     _Lcd_Set_Cursor
                   _Lcd_Write_String
                            _sprintf
 ---------------------------------------------------------------------------------
 (1) _sprintf                                             21    15      6   33171
                                            117 BANK0      6     0      6
                                              0 BANK1     13    13      0
                           _vfprintf
 ---------------------------------------------------------------------------------
 (2) _vfprintf                                             6     1      5   32277
                                            111 BANK0      6     1      5
                          _vfpfcnvrt
 ---------------------------------------------------------------------------------
 (3) _vfpfcnvrt                                           14     9      5   31659
                                             98 BANK0     13     8      5
                            ___lwdiv
                            ___lwmod
                             _efgtoa
                              _fputc
 ---------------------------------------------------------------------------------
 (4) _efgtoa                                              54    47      7   27774
                                             45 BANK0     53    46      7
                            ___fladd
                            ___fldiv
                             ___fleq
                             ___flge
                            ___flmul
                            ___flneg
                            ___flsub
                            ___fltol
                      ___fpclassifyf
                             _floorf
                               _labs
                             _memcpy
                                _pad
                             _strcpy
 ---------------------------------------------------------------------------------
 (5) _strcpy                                               6     3      3     463
                                             43 COMRAM     1     1      0
                                              0 BANK0      5     2      3
 ---------------------------------------------------------------------------------
 (5) _pad                                                  9     3      6    4182
                                             43 COMRAM     1     1      0
                                             16 BANK0      8     2      6
                              _fputc
                              _fputs
 ---------------------------------------------------------------------------------
 (6) _fputs                                                7     3      4    1682
                                              9 BANK0      7     3      4
                              _fputc
 ---------------------------------------------------------------------------------
 (4) _fputc                                                9     5      4    1276
                                              0 BANK0      9     5      4
                              _putch
 ---------------------------------------------------------------------------------
 (5) _putch                                                1     1      0       0
 ---------------------------------------------------------------------------------
 (5) _memcpy                                              11     5      6     478
                                              0 BANK0     11     5      6
 ---------------------------------------------------------------------------------
 (5) _labs                                                 8     4      4     363
                                              0 BANK0      8     4      4
 ---------------------------------------------------------------------------------
 (5) _floorf                                              20    16      4     669
                                             25 BANK0     20    16      4
                            ___fldiv (ARG)
 ---------------------------------------------------------------------------------
 (5) ___fpclassifyf                                       14    10      4     375
                                              0 BANK0     14    10      4
 ---------------------------------------------------------------------------------
 (5) ___fltol                                             10     6      4     662
                                             43 COMRAM     2     2      0
                                              0 BANK0      8     4      4
 ---------------------------------------------------------------------------------
 (5) ___flsub                                              8     0      8    4007
                                             25 BANK0      8     0      8
                            ___fladd
                            ___flmul (ARG)
 ---------------------------------------------------------------------------------
 (6) ___fladd                                             16     8      8    3442
                                              0 BANK0     16     8      8
 ---------------------------------------------------------------------------------
 (5) ___flneg                                              4     0      4     155
                                              0 BANK0      4     0      4
 ---------------------------------------------------------------------------------
 (5) ___flmul                                             25    17      8    3523
                                              0 BANK0     25    17      8
 ---------------------------------------------------------------------------------
 (5) ___flge                                              12     4      8     986
                                             25 BANK0     12     4      8
                            ___flmul (ARG)
 ---------------------------------------------------------------------------------
 (5) ___fleq                                              12     4      8     770
                                              0 BANK0     12     4      8
 ---------------------------------------------------------------------------------
 (5) ___fldiv                                             25    17      8    2833
                                              0 BANK0     25    17      8
 ---------------------------------------------------------------------------------
 (4) ___lwmod                                              5     1      4     412
                                             43 COMRAM     1     1      0
                                              0 BANK0      4     0      4
 ---------------------------------------------------------------------------------
 (4) ___lwdiv                                              7     3      4     421
                                              0 BANK0      7     3      4
 ---------------------------------------------------------------------------------
 (1) _Lcd_Write_String                                     3     2      1     564
                                             44 COMRAM     1     0      1
                                              3 BANK0      2     2      0
                     _Lcd_Write_Char
 ---------------------------------------------------------------------------------
 (2) _Lcd_Write_Char                                       3     3      0     254
                                              0 BANK0      3     3      0
                           _Lcd_Port
 ---------------------------------------------------------------------------------
 (1) _Lcd_Set_Cursor                                       5     4      1    1115
                                              1 BANK0      5     4      1
                            _Lcd_Cmd
 ---------------------------------------------------------------------------------
 (1) _Lcd_Init                                             2     2      0     434
                                              1 BANK0      2     2      0
                          _Lcd_Clear
                            _Lcd_Cmd
                           _Lcd_Port
 ---------------------------------------------------------------------------------
 (2) _Lcd_Clear                                            0     0      0     155
                            _Lcd_Cmd
 ---------------------------------------------------------------------------------
 (2) _Lcd_Cmd                                              2     2      0     155
                                             44 COMRAM     1     1      0
                                              0 BANK0      1     1      0
                           _Lcd_Port
 ---------------------------------------------------------------------------------
 (3) _Lcd_Port                                             1     1      0     124
                                             43 COMRAM     1     1      0
 ---------------------------------------------------------------------------------
 Estimated maximum stack depth 6
 ---------------------------------------------------------------------------------
 (Depth) Function   	        Calls       Base Space   Used Autos Params    Refs
 ---------------------------------------------------------------------------------
 (9) _INT_CCP1                                             4     4      0    3344
                                             39 COMRAM     4     4      0
                           ___xxtofl
                          i2___fldiv
                          i2___flmul
                          i2___fltol
 ---------------------------------------------------------------------------------
 (10) i2___fltol                                          10     6      4     255
                                             25 COMRAM    10     6      4
                          i2___fldiv (ARG)
 ---------------------------------------------------------------------------------
 (10) i2___flmul                                          25    17      8    1518
                                             14 COMRAM    25    17      8
                           ___xxtofl (ARG)
 ---------------------------------------------------------------------------------
 (10) i2___fldiv                                          25    17      8    1173
                                              0 COMRAM    25    17      8
 ---------------------------------------------------------------------------------
 (10) ___xxtofl                                           14    10      4     398
                                              0 COMRAM    14    10      4
 ---------------------------------------------------------------------------------
 Estimated maximum stack depth 10
 ---------------------------------------------------------------------------------

 Call Graph Graphs:

 _main (ROOT)
   _Lcd_Clear
     _Lcd_Cmd
       _Lcd_Port
   _Lcd_Init
     _Lcd_Clear
     _Lcd_Cmd
     _Lcd_Port
   _Lcd_Set_Cursor
     _Lcd_Cmd
   _Lcd_Write_String
     _Lcd_Write_Char
       _Lcd_Port
   _sprintf
     _vfprintf
       _vfpfcnvrt
         ___lwdiv
         ___lwmod
         _efgtoa
           ___fladd
           ___fldiv
           ___fleq
           ___flge
             ___flmul (ARG)
           ___flmul
           ___flneg
           ___flsub
             ___fladd
             ___flmul (ARG)
           ___fltol
           ___fpclassifyf
           _floorf
             ___fldiv (ARG)
           _labs
           _memcpy
           _pad
             _fputc
               _putch
             _fputs
               _fputc
           _strcpy
         _fputc

 _INT_CCP1 (ROOT)
   ___xxtofl
   i2___fldiv
   i2___flmul
     ___xxtofl (ARG)
   i2___fltol
     i2___fldiv (ARG)

 Address spaces:
Name               Size   Autos  Total    Cost      Usage
BIGRAM             7FF      0       0      29        0.0%
EEDATA             100      0       0       0        0.0%
BITBANK7           100      0       0      18        0.0%
BANK7              100      0       0      19        0.0%
BITBANK6           100      0       0      16        0.0%
BANK6              100      0       0      17        0.0%
BITBANK5           100      0       0      14        0.0%
BANK5              100      0       0      15        0.0%
BITBANK4           100      0       0      12        0.0%
BANK4              100      0       0      13        0.0%
BITBANK3           100      0       0      10        0.0%
BANK3              100      0       0      11        0.0%
BITBANK2           100      0       0       8        0.0%
BANK2              100      0       0       9        0.0%
BITBANK1           100      0       0       6        0.0%
BANK1              100      D      5D       7       36.3%
BITBANK0            A0      0       0       4        0.0%
BANK0               A0     7D      A0       5      100.0%
BITCOMRAM           5E      0       0       0        0.0%
COMRAM              5E     2D      33       1       54.3%
BITBIGSFRlll        2C      0       0      27        0.0%
BITBIGSFRhlh        22      0       0      21        0.0%
BITBIGSFRlhl        1E      0       0      24        0.0%
BITBIGSFRhh          D      0       0      20        0.0%
BITBIGSFRhll         B      0       0      22        0.0%
BITBIGSFRllhl        8      0       0      26        0.0%
BITBIGSFRllhh        7      0       0      25        0.0%
BITBIGSFRlhhh        1      0       0      23        0.0%
BIGSFR               0      0       0     200        0.0%
BITSFR               0      0       0     200        0.0%
SFR                  0      0       0     200        0.0%
STACK                0      0       0       2        0.0%
NULL                 0      0       0       0        0.0%
ABS                  0      0     130      28        0.0%
DATA                 0      0     130       3        0.0%
CODE                 0      0       0       0        0.0%


Microchip Technology PIC18 Macro Assembler V2.45 build 20230818022343 
Symbol Table                                                                                   Thu Mar 28 09:03:06 2024

            ___fldiv@aexp 0078              ___fldiv@bexp 0077              ___fldiv@sign 0070  
                      l70 36F6                        l81 3724                        l74 370C  
                      l66 36E0                        l84 3A2E                        l93 321A  
                      l78 3722                        l87 3A3C                        l97 321A  
                     l100 357A                       l103 39D8                       l109 3964  
                     l424 2EF0                       l433 399E                       l418 3448  
                     l429 2F36                       l704 1518                       l456 2E30  
                     l713 15E8                       l650 35E8                       l714 15D6  
                     l660 36C0                       l741 22C0                       l743 2120  
                     l752 2166                       l912 0FEE                       l657 35F0  
                     l729 38A8                       l754 21DE                       l746 20E4  
                     l667 36C8                       l755 21CC                       l780 198C  
                     l773 1796                       l837 38EC                       l790 1ABC  
                     l782 1A04                       l783 19F2                       l687 13FE  
                     l696 16CE                       l688 13EC                       l864 360A  
                     l936 295E                       l777 1AFA                       l689 13B2  
                     l882 0BA6                       l868 3662                       l884 09E6  
                     l990 377C                       l879 120C                       l959 3818  
                     l976 2B74                       l969 313C                       l979 2AB8  
                     l996 37CE                       _pad 35F2               i2___fldiv@a 0005  
             i2___fldiv@b 0001                       wreg 0FE8               i2___flmul@a 0013  
             i2___flmul@b 000F              ___flmul@aexp 006D              ___flmul@bexp 0072  
            ___flmul@sign 006C              ___flmul@temp 0077              ___flmul@prod 0073  
            ___fltol@exp1 002D                      l1008 339C                      l1016 3860  
                    l1025 3928                      l1019 3A3E                      l5001 174E  
                    l5011 1786                      l5003 1750                      l5101 1AE0  
                    l5021 17D6                      l5013 17A6                      l5005 1760  
                    l5103 1AE6                      l5031 1826                      l5023 17E0  
                    l5015 17B6                      l5007 1770                      l5111 3874  
                    l5121 340C                      l5105 1AEA                      l5041 1868  
                    l5033 1832                      l5025 17F6                      l5009 1780  
                    l5201 2E20                      l5123 341C                      l5115 339E  
                    l5131 2E32                      l5051 18CA                      l5043 1878  
                    l5035 1840                      l5027 1802                      l5019 17CA  
                    l5301 3706                      l5125 3440                      l5117 33CE  
                    l5141 2EBE                      l5133 2E62                      l5061 1972  
                    l5053 18E6                      l5045 1892                      l5037 184C  
                    l5029 181A                      l5109 3862                      l5221 309E  
                    l6021 3308                      l6101 0976                      l5303 370E  
                    l5311 3598                      l5127 3446                      l5119 33DE  
                    l5143 2ED0                      l5135 2E72                      l5071 19AE  
                    l5063 197C                      l5055 1910                      l5047 18A2  
                    l5039 185C                      l5231 30F0                      l5223 30C6  
                    l6023 3312                      l6031 381A                      l6103 097E  
                    l6111 0996                      l5305 371C                      l5321 35D2  
                    l5313 35A0                      l5145 2EDE                      l5137 2EA0  
                    l5081 1A20                      l5073 19BC                      l5065 198A  
                    l5057 1946                      l5049 18BE                      l5153 3966  
                    l5161 2D2A                      l5225 30D2                      l5217 303E  
                    l6025 3330                      l6017 32E2                      l6033 3828  
                    l6041 3602                      l5241 38F6                      l6201 0F2C  
                    l6121 0A2E                      l6113 09AE                      l5323 35DA  
                    l5315 35A8                      l5307 357C                      l5331 3678  
                    l5147 2F2E                      l5139 2EB0                      l5091 1A8A  
                    l5083 1A2E                      l5075 19EA                      l5067 199C  
                    l5059 1954                      l5155 397E                      l5171 2D82  
                    l5163 2D42                      l5235 3134                      l5219 305E  
                    l5251 2960                      l5243 3726                      l6027 3366  
                    l6019 32F6                      l6035 383A                      l6043 3616  
                    l6211 0FC6                      l6203 0F34                      l6131 0B28  
                    l6123 0A6E                      l6051 0816                      l5325 35DC  
                    l5317 35B6                      l5309 3586                      l5341 36B4  
                    l5333 3680                      l5149 2F34                      l5093 1AA4  
                    l5085 1A58                      l5069 19AA                      l5157 398E  
                    l4701 1340                      l5173 2D92                      l5229 30DE  
                    l5253 2980                      l5245 3736                      l6037 3840  
                    l6045 362A                      l6221 1022                      l6213 0FE6  
                    l6205 0F38                      l6141 0BBC                      l6133 0B30  
                    l6125 0AA2                      l6117 09F6                      l6061 0862  
                    l6053 081C                      l6301 277A                      ?_pad 0070  
                    l5327 35E2                      l5319 35BC                      l5343 36BA  
                    l5335 3688                      l5095 1AC0                      l5079 1A14  
                    l5087 1A5C                      l4711 1354                      l4703 1344  
                    l4631 120E                      l5183 2DBC                      l5175 2D96  
                    l5167 2D56                      l5271 2B2C                      l5263 2A6C  
                    l5255 29D8                      l5247 374A                      l6047 3630  
                    l6039 35F2                      l5239 38EE                      l6231 104A  
                    l6223 1028                      l6215 1000                      l6207 0F40  
                    l6151 0BEE                      l6143 0BC8                      l6127 0AE0  
                    l6119 09FA                      l6071 08A0                      l6063 086C  
                    l6055 082C                      l6311 27CA                      l6303 277E  
                    l5337 3696                      l5329 3664                      l5097 1AD0  
                    l5089 1A76                      l4801 15F8                      l4721 13CC  
                    l4713 137E                      l4705 1348                      l4641 124C  
                    l4633 121C                      l5193 2DE4                      l5185 2DC6  
                    l5177 2DA4                      l5169 2D80                      l5273 2B54  
                    l5265 2AA8                      l5257 29EC                      l5281 3792  
                    l6049 364E                      l6241 107E                      l6225 1030  
                    l6217 100E                      l6233 1050                      l6209 0F4C  
                    l6161 0C36                      l6153 0BFC                      l6145 0BD0  
                    l6129 0AF4                      l6137 0B72                      l6081 08E8  
                    l6073 08A8                      l6065 0874                      l6057 083A  
                    l6313 27DC                      l6321 27F2                      l6401 3466  
                    l5291 36CC                      l5339 36AC                      l5099 1ADE  
                    l4811 165E                      l4803 1604                      l4731 140C  
                    l4723 13D0                      l4715 139A                      l4707 134C  
                    l4651 127C                      l4643 125C                      l4635 122A  
                    l5195 2DF0                      l5187 2DD0                      l5275 2B64  
                    l5259 29FA                      l5267 2ADC                      l5283 379E  
                    l6251 1136                      l6243 10D6                      l6235 1062  
                    l6227 1040                      l6219 101E                      l6171 0D4C  
                    l6163 0C46                      l6155 0C14                      l6147 0BD8  
                    l6139 0BAE                      l6083 08EE                      l6067 0884  
                    l6075 08AC                      l6059 083E                      l6331 2898  
                    l6315 27E2                      l6323 2824                      l6307 2794  
                    l6411 349A                      l6403 3468                      l5293 36DA  
                    l4901 2078                      l4821 16A6                      l4813 166E  
                    l4805 1612                      l4741 144E                      l4733 141C  
                    l4725 13DE                      l4717 13AA                      l4709 1350  
                    l4661 12A6                      l4653 128E                      l4645 125E  
                    l4637 122C                      l5197 2E00                      l5269 2B18  
                    l5285 37A2                      l6261 11A6                      l6253 1152  
                    l6245 110C                      l6237 1074                      l6229 1044  
                    l6181 0DEC                      l6165 0C5A                      l6173 0D52  
                    l6157 0C26                      l6149 0BDC                      l6085 08F6  
                    l6077 08D4                      l6093 0934                      l6069 0894  
                    l6341 28FE                      l6333 28C2                      l6325 2844  
                    l6317 27EA                      l6501 27B2                      l6309 27C0  
                    l6413 34A2                      l6405 346C                      l5295 36E2  
                    l5711 3518                      l4911 20C0                      l4903 2088  
                    l4823 16A8                      l4815 168E                      l4807 164C  
                    l4751 147C                      l4743 145C                      l4727 13E0  
                    l4719 13C0                      l4663 12B6                      l4671 12E0  
                    l4655 1290                      l4639 123C                      l4647 1266  
                    l5199 2E10                      l5287 37AE                      l5279 377E  
                    l6263 11BE                      l6255 115A                      l6247 1114  
                    l6239 1078                      l6191 0ECC                      l6183 0E20  
                    l6175 0D70                      l6167 0CBE                      l6159 0C2E  
                    l6095 095C                      l6087 090A                      l6079 08E4  
                    l6335 28D0                      l6327 286E                      l6343 292A  
                    l6503 2806                      l6415 34AE                      l6407 3470  
                    l5297 36F0                      l5721 354C                      l5713 351E  
                    l5705 34EE                      l4921 210E                      l4913 20D4  
                    l4905 2098                      l4841 1F26                      l4825 16AE  
                    l4817 1692                      l4809 164E                      l4761 14E8  
                    l4753 1486                      l4745 1468                      l4737 1430  
                    l4729 13EA                      l4681 1318                      l4673 12F0  
                    l4665 12C6                      l4657 1296                      l4649 1276  
                    l5289 37B2                      l6265 11CE                      l6257 1168  
                    l6249 1118                      l6193 0ED0                      l6185 0E2E  
                    l6177 0DA4                      l6169 0D16                      l6097 096C  
                    l6089 0914                      l6505 28AC                      l6281 2698  
                    l6273 265C                      l6417 34C4                      l6409 347C  
                    l5299 36F8                      l5571 3A1A                      l5731 356A  
                    l5723 3552                      l5715 352E                      l5707 34FA  
                    l4931 2156                      l4923 211E                      l4915 20E2  
                    l4907 20A8                      l4851 1F64                      l4843 1F34  
                    l4827 16BC                      l4819 16A0                      l4763 14F8  
                    l4747 146C                      l4739 1440                      l4755 148C  
                    l4691 132C                      l4683 131C                      l4675 1302  
                    l4667 12D6                      l4659 12A4                      l6267 11E4  
                    l6259 1198                      l6195 0F04                      l6187 0E3E  
                    l6179 0DD8                      l6099 0970                      l6507 291C  
                    l6291 26EA                      l6283 26A2                      l6275 2680  
                    l6347 2938                      l6371 37D8                      l6419 34CC  
                    l5573 3A1C                      l5733 3570                      l5725 3558  
                    l5717 3534                      l5709 3500                      l5741 3166  
                    l4941 2196                      l4933 2164                      l4925 2130  
                    l4917 20EE                      l4909 20B0                      l4861 1F94  
                    l4853 1F74                      l4845 1F42                      l4829 16BE  
                    l4781 157A                      l4773 1552                      l4757 14B2  
                    l4765 1508                      l4749 147A                      l4693 1330  
                    l4685 1320                      l4677 1310                      l4669 12D8  
                    l6269 11EC                      l6197 0F18                      l6189 0E72  
                    l6293 2714                      l6285 26BE                      l6277 2688  
                    l6373 37F2                      l6381 38B4                      l5575 3A2C  
                    l5567 3A10                      l5735 3576                      l5727 355E  
                    l5719 3546                      l5751 31A2                      l5743 316C  
                    l4951 2208                      l4943 21C4                      l4927 2146  
                    l4935 2176                      l4919 210C                      l4871 1FCA  
                    l4863 1F9A                      l4855 1F76                      l4847 1F44  
                    l4783 1582                      l4775 155C                      l4767 152E  
                    l4759 14E6                      l4791 15A6                      l4695 1334  
                    l4687 1324                      l4679 1314                      l6199 0F1C  
                    l6295 2730                      l6287 26D8                      l6279 2694  
                    l6375 380E                      l6383 38BC                      l6391 344A  
                    l5569 3A12                      l5673 3A30                      l5729 3564  
                    l5761 31E4                      l5753 31AE                      l5745 3178  
                    l5737 3142                      l5681 39BC                      l4961 2280  
                    l4953 2232                      l4937 2184                      l4929 214C  
                    l4881 200A                      l4873 1FDA                      l4865 1FA8  
                    l4849 1F54                      l4857 1F7E                      l4793 15AA  
                    l4785 1586                      l4777 156A                      l4769 153E  
                    l4697 1338                      l4689 1328                      l6297 2744  
                    l6289 26E6                      l6369 37D0                      l6385 38C4  
                    l6393 344E                      l5763 31F6                      l5755 31C0  
                    l5747 318A                      l5739 3154                      l5691 39D0  
                    l5683 39BE                      l5675 39A4                      l4971 22B6  
                    l4963 229C                      l4947 21EE                      l4955 2236  
                    l4939 2188                      l4883 201A                      l4891 203A  
                    l4875 1FDC                      l4867 1FAA                      l4859 1F8E  
                    l4795 15B8                      l4787 1596                      l4779 156C  
                    l4699 133C                      l6299 2758                      l6387 38DE  
                    l6379 38AA                      l6395 3450                      l5765 3208  
                    l5757 31D2                      l5749 319C                      l5693 39D6  
                    l5685 39C4                      l5677 39B2                      l5781 392A  
                    l4965 22A0                      l4957 2250                      l4949 21FA  
                    l4893 204A                      l4885 2022                      l4869 1FBA  
                    l4877 1FE4                      l4981 16DE                      l4797 15CE  
                    l4789 1598                      l6397 3452                      l5767 320E  
                    l5759 31D8                      l5687 39C6                      l5679 39B4  
                    l5783 3938                      l4967 22AE                      l4959 2266  
                    l4895 204A                      l4887 2026                      l4879 1FF4  
                    l4991 171E                      l4983 16EC                      l6399 3454  
                    l5689 39CE                      l5785 3946                      l4969 22B4  
                    l4993 1724                      l4985 16EE                      l5787 394C  
                    l4899 205E                      l4995 1734                      l4987 16FE  
                    l4979 16D0                      l4997 173A                      l4989 170E  
                    l4999 1740                      STR_1 0801                      STR_2 0807  
                    STR_3 080D                      STR_6 0811                      u5000 128E  
                    u5001 128A                      u5010 12A4                      u5011 12A0  
                    u5100 13DE                      u5020 12B6                      u5101 13DA  
                    u5021 12B2                      u5110 13FE                      u5030 12C6  
                    u5111 13FA                      u5031 12C2                      u5200 153E  
                    u5120 140C                      u5040 1302                      u6000 30F0  
                    u5201 153A                      u5121 1408                      u5041 12FE  
                    u6001 30EC                      u5210 156A                      u5130 141C  
                    u5050 1310                      u5211 1566                      u5131 1418  
                    u5051 130C                      u5300 164C                      u5220 157A  
                    u5140 144E                      u5060 137E                      u6020 312A  
                    u6100 2A68                      u5301 1648                      u5221 1576  
                    u5141 144A                      u5061 137A                      u6021 3124  
                    u6101 2A64                      u5310 165E                      u5230 1596  
                    u5150 145C                      u5070 1396                      u6030 312C  
                    u6110 2A8C                      u5311 165A                      u5231 1592  
                    u5151 1458                      u5071 1390                      u6015 3102  
                    u6200 371C                      u5400 1FA8                      u5320 166E  
                    u5240 15A6                      u5160 147A                      u5080 1398  
                    u6120 2AA8                      u6040 3928                      u7000 0BEE  
                    u6201 3718                      u5401 1FA4                      u5321 166A  
                    u5241 15A2                      u5161 1476                      u6121 2AA4  
                    u6041 3924                      u7001 0BEA                      u6210 3598  
                    u5410 1FBA                      u5330 168E                      u5250 15B8  
                    u5170 14B2                      u5090 13C0                      u6130 2AFC  
                    u6050 3736                      u7010 0BFC                      u6211 3594  
                    u5411 1FB6                      u5331 168A                      u5251 15B4  
                    u5171 14AE                      u5091 13BC                      u6115 2A82  
                    u6051 3732                      u7011 0BF8                      u6220 35B6  
                    u5500 2164                      u5420 1FCA                      u5340 16A0  
                    u5260 15CE                      u5180 14F8                      u6140 2B18  
                    u6060 29AA                      u7100 1000                      u7020 0C26  
                    u6221 35B2                      u5501 2160                      u5421 1FC6  
                    u5341 169C                      u5261 15CA                      u5181 14F4  
                    u6141 2B14                      u7101 0FFC                      u7021 0C22  
                    u6230 35D2                      u5510 2184                      u5430 200A  
                    u5350 16BC                      u5270 15E4                      u5190 152E  
                    u6150 2B54                      u6070 29D8                      u7110 100E  
                    u7030 0D70                      u6231 35CE                      u5511 2180  
                    u5431 2006                      u5351 16B8                      u5271 15E0  
                    u5191 152A                      u6151 2B50                      u6135 2AF2  
                    u6071 29D4                      u7111 100A                      u7031 0D6C  
                    u6240 3678                      u5520 2196                      u5440 204A  
                    u5600 16EC                      u5280 15F8                      u6080 29FA  
                    u6160 37CE                      u7120 1062                      u7040 0DD8  
                    u7200 2744                      u6241 3674                      u5521 2192  
                    u5441 2046                      u5601 16E8                      u5281 15F4  
                    u6081 29F6                      u6065 29A0                      u6161 37CA  
                    u7121 105E                      u7041 0DD4                      u7201 2740  
                    u6170 36DA                      u6250 3696                      u5530 21C4  
                    u5450 20C0                      u5370 1F42                      u5610 16FE  
                    u5290 1612                      u7130 1136                      u7050 0E20  
                    u7210 2754                      u6171 36D6                      u6251 3692  
                    u5531 21C0                      u5451 20BC                      u5371 1F3E  
                    u5611 16FA                      u5291 160E                      u7131 1132  
                    u7051 0E1C                      u7211 2750                      u6180 36F0  
                    u6260 36AC                      u5540 21DA                      u5460 20E2  
                    u5380 1F54                      u5700 19AA                      u5620 170E  
                    u7140 1152                      u7060 0E2E                      u7220 2790  
                    u6181 36EC                      u6261 36A8                      u5541 21D6  
                    u5461 20DE                      u5381 1F50                      u5701 19A6  
                    u5621 170A                      u7141 114E                      u7061 0E2A  
                    u7221 278C                      u6190 3706                      u5550 21EE  
                    u5470 210C                      u5390 1F64                      u5710 19BC  
                    u5630 174E                      u7150 11B8                      u7070 0ECC  
                    u7230 2840                      u6191 3702                      u5551 21EA  
                    u5471 2108                      u5391 1F60                      u5711 19B8  
                    u5631 174A                      u6095 2A0E                      u7151 11B2  
                    u7071 0EC8                      u7231 283C                      u5560 2208  
                    u5480 2130                      u5800 340C                      u5720 19EA  
                    u5640 1760                      u6096 2A18                      u7160 11BA  
                    u7080 0F18                      u7240 380E                      u5561 2204  
                    u5481 212C                      u5801 3408                      u5721 19E6  
                    u5641 175C                      u6097 2A28                      u7081 0F14  
                    u7241 380A                      u5570 2250                      u5490 2146  
                    u5810 3440                      u5730 1A00                      u5650 1770  
                    u7170 11CE                      u7090 0FC6                      u7307 353C  
                    u5571 224C                      u5491 2142                      u5811 343C  
                    u5731 19FC                      u5651 176C                      u7171 11CA  
                    u7091 0FC2                      u6700 3964                      u5580 2280  
                    u5820 2E62                      u5740 1A14                      u5660 17A6  
                    u5900 2DA4                      u7180 2680                      u7317 3A22  
                    u6701 3960                      u5581 227C                      u5821 2E5E  
                    u5741 1A10                      u5661 17A2                      u5901 2DA0  
                    u7181 267C                      u5590 22AE                      u5830 2EA0  
                    u5750 1A2E                      u5670 17B6                      u5910 2DB8  
                    u7190 26BE                      u5591 22AA                      u5831 2E9C  
                    u5751 1A2A                      u5671 17B2                      u5911 2DB4  
                    u7191 26BA                      i2l56 32D6                      u5840 2EBE  
                    u5760 1A76                      u5680 1930                      u5920 2DE0  
                    u6800 3308                      u5841 2EBA                      u5761 1A72  
                    u5921 2DDC                      u6801 3304                      u7257 34D8  
                    u5850 2EDE                      u5770 1AA4                      u5690 198A  
                    u4970 122A                      u5930 2E00                      u6810 3330  
                    u7267 39C0                      u5851 2EDA                      u5771 1AA0  
                    u5691 1986                      u4971 1226                      u5931 2DFC  
                    u6811 332C                      u6660 3154                      u5860 2F2E  
                    u5780 1ADE                      u4980 123C                      u5940 2E10  
                    u6820 3366                      u6900 08E4                      u6661 3150  
                    u7277 39D2                      u5861 2F2A                      u5781 1ADA  
                    u5685 1926                      u4981 1238                      u5941 2E0C  
                    u6821 3362                      u6901 08E0                      u6670 318A  
                    u5790 33CE                      u5870 397E                      u4990 124C  
                    u6830 3860                      u6910 095C                      u7287 350C  
                    u6671 3186                      u5791 33CA                      u5871 397A  
                    u4991 1248                      u6831 385C                      u6911 0958  
                    u6680 31C0                      u5880 2D42                      u6840 3602  
                    u6920 096C                      u7297 3526                      u6681 31BC  
                    u5881 2D3E                      u6841 35FE                      u6921 0968  
                    u6690 31F6                      u5890 2D76                      u5970 3080  
                    u6850 364E                      u6930 09E2                      u6691 31F2  
                    u6851 364A                      u6931 09DE                      u5980 309E  
                    u6940 0A6E                      u6860 083A                      u5981 309A  
                    u6941 0A6A                      u6861 0836                      u5990 30C6  
                    u6790 32F6                      u6950 0AA2                      u6870 0884  
                    u5895 2D6C                      u5991 30C2                      u5975 3074  
                    u6791 32F2                      u6951 0A9E                      u6871 0880  
                    u6960 0AE0                      u6880 0894                      u6961 0ADC  
                    u6881 0890                      u6970 0B6E                      u6890 08D4  
                    u6971 0B6A                      u6891 08D0                      u6980 0BA6  
                    u6981 0BA2                      u6990 0BBC                      u6991 0BB8  
       ?_Lcd_Write_String 002D                      _dbuf 0100                      _labs 3726  
                    _main 344A                      _prec 00E3                      pad@i 0076  
                    pad@p 0074                      fsr1h 0FE2                      fsr2h 0FDA  
                    indf2 0FDF                      fsr1l 0FE1                      fsr2l 0FD9  
                    btemp 0034             ___fpclassifyf 303E                      prodh 0FF4  
                    prodl 0FF3                      start 000E        ??_Lcd_Write_String 002E  
            i2___fltol@f1 001A           ___fldiv@new_exp 0071           __end_of_Lcd_Cmd 3A30  
            ___param_bank 0000                     ??_pad 002C             ___fltol@sign1 002C  
                   ?_labs 0060           __end_of___fladd 16D0                     ?_main 0001  
         __end_of___fldiv 22C2           __end_of___flneg 39A0          __end_of_INT_CCP1 32E2  
         __end_of___flmul 1AFC           __end_of___flsub 38AA           __end_of___fltol 2E32  
                   _T1CON 0FCD           __end_of___lwdiv 35F2           __end_of___lwmod 36CA  
                   i2l456 303C                     i2l821 2C64                     i2l741 265A  
                   i2l814 2BCC                     i2l743 24BA                     i2l752 2500  
                   i2l817 2D28                     i2l754 2578                     i2l746 247E  
                   i2l755 2566                     i2l828 2CC0                     i2l780 1DB6  
                   i2l773 1BC0                     i2l790 1EE6                     i2l782 1E2E  
                   i2l783 1E1C                     i2l777 1F24              vfpfcnvrt@fmt 00C4  
                   _TMR1H 0FCF                     _TMR1L 0FCE                     _flags 00E7  
                   _fputc 32E2                     _fputs 381A             i2___fldiv@grs 0014  
           i2___fldiv@rem 000D                     labs@a 0060                     pad@fp 0070  
                   _width 00E1                     _putch 3A3E                     tablat 0FF5  
                   ttemp5 0035                     ttemp6 0038                     ttemp7 003C  
                   status 0FD8                     wtemp8 0035           __end_of_sprintf 38EE  
          ?___fpclassifyf 0060             i2___flmul@grs 001C          __end_of_Lcd_Init 357C  
        __end_of_Lcd_Port 3726           __initialization 39DA              __end_of_labs 377E  
            __end_of_main 34EE                    ??_labs 0064                    ??_main 00DB  
           __activetblptr 0002                    ?_fputc 0060                    ?_fputs 0069  
                  _CCPR1H 0FBF                    _CCPR1L 0FBE                    ?_putch 0001  
                  i2l4021 2B96                    i2l4101 301C                    i2l4031 2C0E  
                  i2l4023 2BDC                    i2l4111 22DC                    i2l4103 302C  
                  i2l4041 2C96                    i2l4033 2C1A                    i2l4025 2BF2  
                  i2l4017 2B78                    i2l4201 2510                    i2l4121 2310  
                  i2l4113 22DE                    i2l4051 2CD4                    i2l4043 2CA2  
                  i2l4035 2C4C                    i2l4019 2B88                    i2l4203 251E  
                  i2l4131 2342                    i2l4115 22EE                    i2l4123 2318  
                  i2l4107 22C2                    i2l4053 2CF8                    i2l4045 2CB0  
                  i2l4037 2C4E                    i2l4029 2C06                    i2l4213 2588  
                  i2l4221 25D0                    i2l4205 2522                    i2l4141 2376  
                  i2l4133 2344                    i2l4125 2328                    i2l4117 22FE  
                  i2l4109 22CE                    i2l4301 1C6A                    i2l4055 2D08  
                  i2l4047 2CCE                    i2l4039 2C5A                    i2l4231 263A  
                  i2l4223 25EA                    i2l4215 2594                    i2l4207 2530  
                  i2l4151 23BC                    i2l4135 2354                    i2l4143 237E  
                  i2l4127 232E                    i2l4119 230E                    i2l4311 1CBC  
                  i2l4303 1C76                    i2l4071 2F8C                    i2l4063 2F38  
                  i2l4057 2D16                    i2l4049 2CD0                    i2l4233 2648  
                  i2l4225 2600                    i2l4217 25A2                    i2l4209 255E  
                  i2l4161 23E4                    i2l4153 23C0                    i2l4145 238E  
                  i2l4137 2364                    i2l4129 2334                    i2l4321 1D3A  
                  i2l4313 1CCC                    i2l4305 1C86                    i2l4073 2F8E  
                  i2l4065 2F4E                    i2l4059 2D18                    i2l4235 264E  
                  i2l4227 261A                    i2l4219 25CC                    i2l4171 2432  
                  i2l4147 23A4                    i2l4139 2374                    i2l4331 1DB4  
                  i2l4323 1D70                    i2l4315 1CE8                    i2l4307 1C92  
                  i2l4251 1B18                    i2l4075 2F9E                    i2l4411 324A  
                  i2l4237 2650                    i2l4229 2636                    i2l4181 247C  
                  i2l4173 2442                    i2l4165 23F8                    i2l4149 23B4  
                  i2l4157 23D4                    i2l4341 1E14                    i2l4333 1DC6  
                  i2l4325 1D7E                    i2l4317 1CF4                    i2l4309 1CA2  
                  i2l4261 1B5E                    i2l4253 1B28                    i2l4245 1AFC  
                  i2l4085 2FC8                    i2l4077 2FA2                    i2l4069 2F62  
                  i2l4413 324E                    i2l4405 3226                    i2l4191 24CA  
                  i2l4183 2488                    i2l4175 244A                    i2l4167 2412  
                  i2l4159 23E4                    i2l4351 1E82                    i2l4335 1DD4  
                  i2l4327 1D9C                    i2l4319 1D10                    i2l4271 1B8A  
                  i2l4263 1B64                    i2l4255 1B38                    i2l4247 1B08  
                  i2l4095 2FF0                    i2l4087 2FD2                    i2l4079 2FB0  
                  i2l4415 3294                    i2l4407 3234                    i2l4193 24E0  
                  i2l4185 24A6                    i2l4177 245A                    i2l4169 2422  
                  i2l4361 1EEA                    i2l4345 1E3E                    i2l4353 1E86  
                  i2l4337 1DD8                    i2l4329 1DA6                    i2l4281 1BE0  
                  i2l4273 1B9A                    i2l4265 1B6A                    i2l4257 1B48  
                  i2l4249 1B16                    i2l4097 2FFC                    i2l4089 2FDC  
                  i2l4417 32D4                    i2l4409 3246                    i2l4195 24E6  
                  i2l4187 24A8                    i2l4179 246E                    i2l4371 1F14  
                  i2l4363 1EFA                    i2l4355 1EA0                    i2l4347 1E4A  
                  i2l4339 1DE6                    i2l4291 1C20                    i2l4275 1BAA  
                  i2l4267 1B78                    i2l4259 1B4E                    i2l4099 300C  
                  i2l4197 24F0                    i2l4189 24B8                    i2l4365 1F08  
                  i2l4357 1EB4                    i2l4349 1E58                    i2l4293 1C2C  
                  i2l4285 1BF4                    i2l4277 1BB0                    i2l4269 1B7A  
                  i2l4199 24FE                    i2l4367 1F0A                    i2l4359 1ECE  
                  i2l4295 1C44                    i2l4287 1C00                    i2l4279 1BD0  
                  i2l4369 1F10                    i2l4297 1C50                    i2l4289 1C0A  
                  i2l4299 1C5C                 ??_Lcd_Cmd 002D          __end_of___xxtofl 2D2A  
            vfprintf@cfmt 00D4                    ___flge 2E32                    ___fleq 339E  
               ??___fladd 0068                 ??___fldiv 0068                 ??___flneg 002C  
               ??___flmul 0068                 ??___flsub 002C                 ??___fltol 0064  
                  _efgtoa 0816                 ??___lwdiv 002C                 ??___lwmod 002C  
                  _buffer 00E8                    _floorf 2960                    _memcpy 377E  
                  clear_0 39E0                    clear_1 39EC            i2___fldiv@aexp 0019  
          i2___fldiv@bexp 0018                    isa$std 0001            i2___fldiv@sign 0011  
                  pad@buf 0072                    _strcpy 38EE                    fputc@c 0060  
                  fputs@c 006D                    fputs@i 006E                    fputs@s 0069  
       __end_ofi2___fldiv 265C         __end_ofi2___flmul 1F26         __end_ofi2___fltol 303E  
         ___fpclassifyf@e 0068           ___fpclassifyf@u 006A           ___fpclassifyf@x 0060  
            __mediumconst 0000                    tblptrh 0FF7                    tblptrl 0FF6  
                  tblptru 0FF8                    putch@c 0001          __end_of_vfprintf 381A  
               ??_sprintf 002E            i2___flmul@aexp 0020            i2___flmul@bexp 0021  
         Lcd_Set_Cursor@a 0062           Lcd_Set_Cursor@b 0061           Lcd_Set_Cursor@y 0064  
         Lcd_Set_Cursor@z 0063            i2___flmul@sign 001B            i2___flmul@temp 0026  
          i2___flmul@prod 0022                ___flge@ff1 0079                ___flge@ff2 007D  
         ??___fpclassifyf 0064              ___xxtofl@arg 000B              ___xxtofl@exp 000A  
            ___xxtofl@val 0001                ___fleq@ff1 0060                ___fleq@ff2 0064  
              __accesstop 0060   __end_of__initialization 39FE            i2___fltol@exp1 0023  
              ___flneg@f1 0060         __end_of_Lcd_Clear 3A3E             ___rparam_used 0001  
              ___fltol@f1 0060                 ?_INT_CCP1 0001            __pcstackCOMRAM 0001  
           __end_of_fputc 339E             __end_of_fputs 3862             __end_of_putch 3A40  
          _Lcd_Set_Cursor 313E                 ?_Lcd_Init 0001                 ?_Lcd_Port 0001  
                 ??_fputc 0064                   ??_fputs 002C                   ??_putch 002C  
              __pbssBANK0 00DD                __pbssBANK1 0100                ??_INT_CCP1 0028  
                 ?___flge 0079                   ?___fleq 0060                   ?_efgtoa 008D  
                 _CCP1CON 0FBD                   ?_floorf 0079                   ?_memcpy 0060  
  __end_of_Lcd_Set_Cursor 321C                   ?_strcpy 0060                 ?___xxtofl 0001  
              ??_Lcd_Init 0061                ??_Lcd_Port 002C            _Lcd_Write_Char 39A0  
                 _Lcd_Cmd 3A0C                _frecuencia 00E5                   __Hparam 0000  
                 __Lparam 0000                   ___fladd 120E                   ___fldiv 1F26  
                 ___flneg 3966                   ___flmul 16D0                   ___flsub 3862  
                 ___fltol 2D2A                   ___lwdiv 357C                   ___lwmod 3664  
               ?_vfprintf 00CF              __psmallconst 0800                   __pcinit 39DA  
                 __ramtop 0800           ?_Lcd_Set_Cursor 0061                   __ptext0 344A  
                 __ptext1 38AA                   __ptext2 37D0                   __ptext3 265C  
                 __ptext4 0816                   __ptext5 38EE                   __ptext6 35F2  
                 __ptext7 381A                   __ptext8 32E2                   __ptext9 3A3E  
               _T1CONbits 0FCD                ??___xxtofl 0005                   _periodo 00FC  
                 efgtoa@c 0093                   efgtoa@d 00A1                   efgtoa@e 00A5  
                 efgtoa@f 008F                   efgtoa@g 00B8                   efgtoa@h 00AF  
                 efgtoa@i 00AD                   efgtoa@l 00B3                   efgtoa@m 00A3  
                 efgtoa@n 00BC                   efgtoa@p 0098                   efgtoa@t 009A  
                 efgtoa@u 00BE                   efgtoa@w 00A7                   _sprintf 38AA  
  __end_of_Lcd_Write_Char 39DA            __pintcode_body 321C      end_of_initialization 39FE  
                 floorf@e 0087                   floorf@m 0083                   floorf@u 0089  
                 floorf@x 0079                   memcpy@d 0067                   memcpy@n 0064  
                 memcpy@s 0069                   fputc@fp 0062             __Lmediumconst 0000  
                 int_func 321C                   fputs@fp 006B         __end_of_vfpfcnvrt 2960  
              efgtoa@mode 009F                efgtoa@sign 00B7                   postdec2 0FDD  
                 postinc0 0FEE                   postinc1 0FE6                   postinc2 0FDE  
        vfpfcnvrt@convarg 00C9                 Lcd_Port@a 002C                ??_vfprintf 002E  
                 strcpy@d 0063               ___fladd@grs 006F             ___xxtofl@sign 0009  
               _TRISDbits 0F95               ___fldiv@grs 0073               ___fldiv@rem 006C  
         i2___fltol@sign1 0022                 i2___fldiv 22C2                 i2___flmul 1AFC  
               i2___fltol 2F38           ?_Lcd_Write_Char 0001         Lcd_Write_String@a 002D  
       Lcd_Write_String@i 0063               ___flmul@grs 006E                 _Lcd_Clear 3A30  
          __end_of___flge 2F38            __end_of___fleq 344A               vfpfcnvrt@ap 00C5  
             vfpfcnvrt@cp 00CE               vfpfcnvrt@fp 00C2          _Lcd_Write_String 392A  
          __end_of_efgtoa 120E            __end_of_floorf 2B76            __end_of_memcpy 37D0  
              floorf@F521 00DD            __end_of_strcpy 392A       start_initialization 39DA  
             __end_of_pad 3664                ?i2___fldiv 0001                ?i2___flmul 000F  
              ?i2___fltol 001A     __end_of___fpclassifyf 313E               vfprintf@fmt 00D1  
              ?_Lcd_Clear 0001                  ??___flge 0081                  ??___fleq 0068  
                ??_efgtoa 0094                  ??_floorf 007D                  ??_memcpy 002C  
         Lcd_Write_Char@a 0062           Lcd_Write_Char@y 0061                  ??_strcpy 002C  
               ___fladd@a 0064                 ___fladd@b 0060                 ___fldiv@a 0064  
               ___fldiv@b 0060                 ___flmul@a 0064                 ___flmul@b 0060  
             __pbssCOMRAM 002E                 ___flsub@a 007D                 ___flsub@b 0079  
           __pcstackBANK0 0060             __pcstackBANK1 0150                  ?_Lcd_Cmd 0001  
             _efgtoa$1012 009C          ___lwdiv@dividend 0060          ??_Lcd_Set_Cursor 002E  
               __pintcode 0008                  ?___fladd 0060                  ?___fldiv 0060  
                ?___flneg 0060                  ?___flmul 0060                  ?___flsub 0079  
                ?___fltol 0060                  ?___lwdiv 0060                  ?___lwmod 0060  
             __smallconst 0800          ___lwdiv@quotient 0065               ??i2___fldiv 0009  
                ?_sprintf 00D5               ??i2___flmul 0017               ??i2___fltol 001E  
                _LATDbits 0F8C                  _PIE1bits 0F9D                  _INT_CCP1 0008  
                Lcd_Cmd@a 0060                  i2u430_40 2CB0                  i2u430_41 2CAC  
                i2u431_40 2CC0                  i2u431_41 2CBC                  i2u432_40 2CCE  
                i2u440_40 300C                  i2u432_41 2CCA                  i2u440_41 3008  
                i2u433_40 2D08                  i2u425_40 2B88                  i2u441_40 301C  
                i2u433_41 2D04                  i2u425_41 2B84                  i2u441_41 3018  
                _PIR1bits 0F9E                  i2u434_40 2D16                  i2u426_40 2B96  
                i2u450_40 245A                  i2u442_40 22DC                  i2u434_41 2D12  
                i2u426_41 2B92                  i2u450_41 2456                  i2u442_41 22D8  
                i2u427_40 2BF2                  i2u451_40 247C                  i2u443_40 22EE  
                i2u435_40 2F4E                  i2u427_41 2BEE                  i2u451_41 2478  
                i2u443_41 22EA                  i2u435_41 2F4A                  i2u428_40 2C48  
                i2u460_40 2588                  i2u452_40 24A6                  i2u444_40 22FE  
                i2u436_40 2F82                  i2u428_41 2C44                  i2u460_41 2584  
                i2u452_41 24A2                  i2u444_41 22FA                  i2u436_45 2F78  
                i2u429_40 2C92                  i2u461_40 25A2                  i2u453_40 24CA  
                i2u445_40 2342                  i2u437_40 2FB0                  i2u429_41 2C8E  
                i2u461_41 259E                  i2u453_41 24C6                  i2u445_41 233E  
                i2u437_41 2FAC                  i2u462_40 25EA                  i2u454_40 24E0  
                i2u446_40 2354                  i2u470_40 1B9A                  i2u438_40 2FC4  
                i2u462_41 25E6                  i2u454_41 24DC                  i2u446_41 2350  
                i2u470_41 1B96                  i2u438_41 2FC0                  i2u463_40 261A  
                i2u455_40 24FE                  i2u447_40 2364                  i2u471_40 1BD0  
                i2u439_40 2FEC                  i2u463_41 2616                  i2u455_41 24FA  
                i2u447_41 2360                  i2u471_41 1BCC                  i2u439_41 2FE8  
                i2u464_40 2648                  i2u456_40 251E                  i2u448_40 23A4  
                i2u480_40 1E58                  i2u472_40 1BE0                  i2u464_41 2644  
                i2u456_41 251A                  i2u448_41 23A0                  i2u480_41 1E54  
                i2u472_41 1BDC                  i2u457_40 2530                  i2u449_40 23E4  
                i2u481_40 1EA0                  i2u473_40 1D5A                  i2u465_40 1B16  
                i2u457_41 252C                  i2u449_41 23E0                  i2u481_41 1E9C  
                i2u465_41 1B12                  i2u473_45 1D50                  i2u458_40 255E  
                i2u482_40 1ECE                  i2u474_40 1DB4                  i2u466_40 1B28  
                i2u458_41 255A                  i2u482_41 1ECA                  i2u474_41 1DB0  
                i2u466_41 1B24                  i2u459_40 2574                  i2u483_40 1F08  
                i2u475_40 1DD4                  i2u467_40 1B38                  i2u459_41 2570  
                i2u483_41 1F04                  i2u475_41 1DD0                  i2u467_41 1B34  
                i2u476_40 1DE6                  i2u468_40 1B78                  i2u484_40 3234  
                i2u476_41 1DE2                  i2u468_41 1B74                  i2u484_41 3230  
                i2u477_40 1E14                  i2u469_40 1B8A                  i2u477_41 1E10  
                i2u469_41 1B86                  i2u478_40 1E2A                  i2u478_41 1E26  
                i2u479_40 1E3E                  i2u479_41 1E3A               ??_Lcd_Clear 002E  
       i2___fldiv@new_exp 0012                 _vfpfcnvrt 265C                _ADCON1bits 0FC1  
        ??_Lcd_Write_Char 002D                  _Lcd_Init 34EE                  _Lcd_Port 36CA  
              vfpfcnvrt@c 00CD  __end_of_Lcd_Write_String 3966                  __Hrparam 0000  
               memcpy@tmp 0066                vfprintf@ap 00D2                  __Lrparam 0000  
              vfprintf@fp 00CF                ?_vfpfcnvrt 00C2        ___fpclassifyf@F465 002E  
              sprintf@fmt 00D6                  ___xxtofl 2B76           ___lwdiv@divisor 0062  
         ___lwdiv@counter 0064                  __ptext10 377E                  __ptext11 3726  
                __ptext20 339E                  __ptext12 2960                  __ptext21 1F26  
                __ptext13 303E                  __ptext30 36CA                  __ptext22 3664  
                __ptext14 2D2A                  __ptext23 357C                  __ptext15 3862  
                __ptext32 2F38                  __ptext24 392A                  __ptext16 120E  
                __ptext33 1AFC                  __ptext25 39A0                  __ptext17 3966  
                __ptext34 22C2                  __ptext26 313E                  __ptext18 16D0  
                __ptext35 2B76                  __ptext27 34EE                  __ptext19 2E32  
                __ptext28 3A30                  __ptext29 3A0C                strcpy@dest 0060  
                efgtoa@fp 008D                  efgtoa@ne 0096                  efgtoa@pp 009E  
                efgtoa@ou 00A9                  isa$xinst 0000                  int$flags 0034  
                _vfprintf 37D0                _INTCONbits 0FF2                  memcpy@d1 0060  
                memcpy@s1 0062        Lcd_Write_Char@temp 0060                  intlevel2 0000  
               sprintf@ap 0150          ___lwmod@dividend 0060                 strcpy@src 0062  
             efgtoa@nmode 00A0               ??_vfpfcnvrt 00C7        Lcd_Set_Cursor@temp 0065  
             _valor_pasos 0032                  sprintf@f 0151                  sprintf@s 00D5  
         ___lwmod@divisor 0062           ___lwmod@counter 002C             ___fladd@signs 006C  
            ___fladd@aexp 006D              ___fladd@bexp 006E  
